(dp0
cnumpy.core.multiarray
scalar
p1
(cnumpy
dtype
p2
(S'u1'
p3
I0
I1
tp4
Rp5
(I3
S'|'
p6
NNNI-1
I-1
I0
tp7
bS'\x01'
p8
tp9
Rp10
S'n02119789'
p11
sg1
(g5
S'\x02'
p12
tp13
Rp14
S'n02100735'
p15
sg1
(g5
S'\x03'
p16
tp17
Rp18
S'n02110185'
p19
sg1
(g5
S'\x04'
p20
tp21
Rp22
S'n02096294'
p23
sg1
(g5
S'\x05'
p24
tp25
Rp26
S'n02102040'
p27
sg1
(g5
S'\x06'
p28
tp29
Rp30
S'n02066245'
p31
sg1
(g5
S'\x07'
p32
tp33
Rp34
S'n02509815'
p35
sg1
(g5
S'\x08'
p36
tp37
Rp38
S'n02124075'
p39
sg1
(g5
S'\t'
p40
tp41
Rp42
S'n02417914'
p43
sg1
(g5
S'\n'
p44
tp45
Rp46
S'n02123394'
p47
sg1
(g5
S'\x0b'
p48
tp49
Rp50
S'n02125311'
p51
sg1
(g5
S'\x0c'
p52
tp53
Rp54
S'n02423022'
p55
sg1
(g5
S'\r'
p56
tp57
Rp58
S'n02346627'
p59
sg1
(g5
S'\x0e'
p60
tp61
Rp62
S'n02077923'
p63
sg1
(g5
S'\x0f'
p64
tp65
Rp66
S'n02110063'
p67
sg1
(g5
S'\x10'
p68
tp69
Rp70
S'n02447366'
p71
sg1
(g5
S'\x11'
p72
tp73
Rp74
S'n02109047'
p75
sg1
(g5
S'\x12'
p76
tp77
Rp78
S'n02089867'
p79
sg1
(g5
S'\x13'
p80
tp81
Rp82
S'n02102177'
p83
sg1
(g5
S'\x14'
p84
tp85
Rp86
S'n02091134'
p87
sg1
(g5
S'\x15'
p88
tp89
Rp90
S'n02092002'
p91
sg1
(g5
S'\x16'
p92
tp93
Rp94
S'n02071294'
p95
sg1
(g5
S'\x17'
p96
tp97
Rp98
S'n02442845'
p99
sg1
(g5
S'\x18'
p100
tp101
Rp102
S'n02504458'
p103
sg1
(g5
S'\x19'
p104
tp105
Rp106
S'n02092339'
p107
sg1
(g5
S'\x1a'
p108
tp109
Rp110
S'n02098105'
p111
sg1
(g5
S'\x1b'
p112
tp113
Rp114
S'n02096437'
p115
sg1
(g5
S'\x1c'
p116
tp117
Rp118
S'n02114712'
p119
sg1
(g5
S'\x1d'
p120
tp121
Rp122
S'n02105641'
p123
sg1
(g5
S'\x1e'
p124
tp125
Rp126
S'n02128925'
p127
sg1
(g5
S'\x1f'
p128
tp129
Rp130
S'n02091635'
p131
sg1
(g5
S' '
p132
tp133
Rp134
S'n02088466'
p135
sg1
(g5
S'!'
p136
tp137
Rp138
S'n02096051'
p139
sg1
(g5
S'"'
p140
tp141
Rp142
S'n02117135'
p143
sg1
(g5
S'#'
p144
tp145
Rp146
S'n02138441'
p147
sg1
(g5
S'$'
p148
tp149
Rp150
S'n02097130'
p151
sg1
(g5
S'%'
p152
tp153
Rp154
S'n02493509'
p155
sg1
(g5
S'&'
p156
tp157
Rp158
S'n02457408'
p159
sg1
(g5
S"'"
p160
tp161
Rp162
S'n02389026'
p163
sg1
(g5
S'('
p164
tp165
Rp166
S'n02443484'
p167
sg1
(g5
S')'
p168
tp169
Rp170
S'n02110341'
p171
sg1
(g5
S'*'
p172
tp173
Rp174
S'n02089078'
p175
sg1
(g5
S'+'
p176
tp177
Rp178
S'n02086910'
p179
sg1
(g5
S','
p180
tp181
Rp182
S'n02445715'
p183
sg1
(g5
S'-'
p184
tp185
Rp186
S'n02093256'
p187
sg1
(g5
S'.'
p188
tp189
Rp190
S'n02113978'
p191
sg1
(g5
S'/'
p192
tp193
Rp194
S'n02106382'
p195
sg1
(g5
S'0'
p196
tp197
Rp198
S'n02441942'
p199
sg1
(g5
S'1'
p200
tp201
Rp202
S'n02113712'
p203
sg1
(g5
S'2'
p204
tp205
Rp206
S'n02113186'
p207
sg1
(g5
S'3'
p208
tp209
Rp210
S'n02105162'
p211
sg1
(g5
S'4'
p212
tp213
Rp214
S'n02415577'
p215
sg1
(g5
S'5'
p216
tp217
Rp218
S'n02356798'
p219
sg1
(g5
S'6'
p220
tp221
Rp222
S'n02488702'
p223
sg1
(g5
S'7'
p224
tp225
Rp226
S'n02123159'
p227
sg1
(g5
S'8'
p228
tp229
Rp230
S'n02098413'
p231
sg1
(g5
S'9'
p232
tp233
Rp234
S'n02422699'
p235
sg1
(g5
S':'
p236
tp237
Rp238
S'n02114855'
p239
sg1
(g5
S';'
p240
tp241
Rp242
S'n02094433'
p243
sg1
(g5
S'<'
p244
tp245
Rp246
S'n02111277'
p247
sg1
(g5
S'='
p248
tp249
Rp250
S'n02132136'
p251
sg1
(g5
S'>'
p252
tp253
Rp254
S'n02119022'
p255
sg1
(g5
S'?'
p256
tp257
Rp258
S'n02091467'
p259
sg1
(g5
S'@'
p260
tp261
Rp262
S'n02106550'
p263
sg1
(g5
S'A'
p264
tp265
Rp266
S'n02422106'
p267
sg1
(g5
S'B'
p268
tp269
Rp270
S'n02091831'
p271
sg1
(g5
S'C'
p272
tp273
Rp274
S'n02120505'
p275
sg1
(g5
S'D'
p276
tp277
Rp278
S'n02104365'
p279
sg1
(g5
S'E'
p280
tp281
Rp282
S'n02086079'
p283
sg1
(g5
S'F'
p284
tp285
Rp286
S'n02112706'
p287
sg1
(g5
S'G'
p288
tp289
Rp290
S'n02098286'
p291
sg1
(g5
S'H'
p292
tp293
Rp294
S'n02095889'
p295
sg1
(g5
S'I'
p296
tp297
Rp298
S'n02484975'
p299
sg1
(g5
S'J'
p300
tp301
Rp302
S'n02137549'
p303
sg1
(g5
S'K'
p304
tp305
Rp306
S'n02500267'
p307
sg1
(g5
S'L'
p308
tp309
Rp310
S'n02129604'
p311
sg1
(g5
S'M'
p312
tp313
Rp314
S'n02090721'
p315
sg1
(g5
S'N'
p316
tp317
Rp318
S'n02396427'
p319
sg1
(g5
S'O'
p320
tp321
Rp322
S'n02108000'
p323
sg1
(g5
S'P'
p324
tp325
Rp326
S'n02391049'
p327
sg1
(g5
S'Q'
p328
tp329
Rp330
S'n02412080'
p331
sg1
(g5
S'R'
p332
tp333
Rp334
S'n02108915'
p335
sg1
(g5
S'S'
p336
tp337
Rp338
S'n02480495'
p339
sg1
(g5
S'T'
p340
tp341
Rp342
S'n02110806'
p343
sg1
(g5
S'U'
p344
tp345
Rp346
S'n02128385'
p347
sg1
(g5
S'V'
p348
tp349
Rp350
S'n02107683'
p351
sg1
(g5
S'W'
p352
tp353
Rp354
S'n02085936'
p355
sg1
(g5
S'X'
p356
tp357
Rp358
S'n02094114'
p359
sg1
(g5
S'Y'
p360
tp361
Rp362
S'n02087046'
p363
sg1
(g5
S'Z'
p364
tp365
Rp366
S'n02100583'
p367
sg1
(g5
S'['
p368
tp369
Rp370
S'n02096177'
p371
sg1
(g5
S'\\'
p372
tp373
Rp374
S'n02494079'
p375
sg1
(g5
S']'
p376
tp377
Rp378
S'n02105056'
p379
sg1
(g5
S'^'
p380
tp381
Rp382
S'n02101556'
p383
sg1
(g5
S'_'
p384
tp385
Rp386
S'n02123597'
p387
sg1
(g5
S'`'
p388
tp389
Rp390
S'n02481823'
p391
sg1
(g5
S'a'
p392
tp393
Rp394
S'n02105505'
p395
sg1
(g5
S'b'
p396
tp397
Rp398
S'n02088094'
p399
sg1
(g5
S'c'
p400
tp401
Rp402
S'n02085782'
p403
sg1
(g5
S'd'
p404
tp405
Rp406
S'n02489166'
p407
sg1
(g5
S'e'
p408
tp409
Rp410
S'n02364673'
p411
sg1
(g5
S'f'
p412
tp413
Rp414
S'n02114548'
p415
sg1
(g5
S'g'
p416
tp417
Rp418
S'n02134084'
p419
sg1
(g5
S'h'
p420
tp421
Rp422
S'n02480855'
p423
sg1
(g5
S'i'
p424
tp425
Rp426
S'n02090622'
p427
sg1
(g5
S'j'
p428
tp429
Rp430
S'n02113624'
p431
sg1
(g5
S'k'
p432
tp433
Rp434
S'n02093859'
p435
sg1
(g5
S'l'
p436
tp437
Rp438
S'n02403003'
p439
sg1
(g5
S'm'
p440
tp441
Rp442
S'n02097298'
p443
sg1
(g5
S'n'
p444
tp445
Rp446
S'n02108551'
p447
sg1
(g5
S'o'
p448
tp449
Rp450
S'n02493793'
p451
sg1
(g5
S'p'
p452
tp453
Rp454
S'n02107142'
p455
sg1
(g5
S'q'
p456
tp457
Rp458
S'n02096585'
p459
sg1
(g5
S'r'
p460
tp461
Rp462
S'n02107574'
p463
sg1
(g5
S's'
p464
tp465
Rp466
S'n02107908'
p467
sg1
(g5
S't'
p468
tp469
Rp470
S'n02086240'
p471
sg1
(g5
S'u'
p472
tp473
Rp474
S'n02102973'
p475
sg1
(g5
S'v'
p476
tp477
Rp478
S'n02112018'
p479
sg1
(g5
S'w'
p480
tp481
Rp482
S'n02093647'
p483
sg1
(g5
S'x'
p484
tp485
Rp486
S'n02397096'
p487
sg1
(g5
S'y'
p488
tp489
Rp490
S'n02437312'
p491
sg1
(g5
S'z'
p492
tp493
Rp494
S'n02483708'
p495
sg1
(g5
S'{'
p496
tp497
Rp498
S'n02097047'
p499
sg1
(g5
S'|'
p500
tp501
Rp502
S'n02106030'
p503
sg1
(g5
S'}'
p504
tp505
Rp506
S'n02099601'
p507
sg1
(g5
S'~'
p508
tp509
Rp510
S'n02093991'
p511
sg1
(g5
S'\x7f'
p512
tp513
Rp514
S'n02110627'
p515
sg1
(g5
S'\x80'
p516
tp517
Rp518
S'n02106166'
p519
sg1
(g5
S'\x81'
p520
tp521
Rp522
S'n02326432'
p523
sg1
(g5
S'\x82'
p524
tp525
Rp526
S'n02108089'
p527
sg1
(g5
S'\x83'
p528
tp529
Rp530
S'n02097658'
p531
sg1
(g5
S'\x84'
p532
tp533
Rp534
S'n02088364'
p535
sg1
(g5
S'\x85'
p536
tp537
Rp538
S'n02111129'
p539
sg1
(g5
S'\x86'
p540
tp541
Rp542
S'n02100236'
p543
sg1
(g5
S'\x87'
p544
tp545
Rp546
S'n02486261'
p547
sg1
(g5
S'\x88'
p548
tp549
Rp550
S'n02115913'
p551
sg1
(g5
S'\x89'
p552
tp553
Rp554
S'n02486410'
p555
sg1
(g5
S'\x8a'
p556
tp557
Rp558
S'n02487347'
p559
sg1
(g5
S'\x8b'
p560
tp561
Rp562
S'n02099849'
p563
sg1
(g5
S'\x8c'
p564
tp565
Rp566
S'n02108422'
p567
sg1
(g5
S'\x8d'
p568
tp569
Rp570
S'n02104029'
p571
sg1
(g5
S'\x8e'
p572
tp573
Rp574
S'n02492035'
p575
sg1
(g5
S'\x8f'
p576
tp577
Rp578
S'n02110958'
p579
sg1
(g5
S'\x90'
p580
tp581
Rp582
S'n02099429'
p583
sg1
(g5
S'\x91'
p584
tp585
Rp586
S'n02094258'
p587
sg1
(g5
S'\x92'
p588
tp589
Rp590
S'n02099267'
p591
sg1
(g5
S'\x93'
p592
tp593
Rp594
S'n02395406'
p595
sg1
(g5
S'\x94'
p596
tp597
Rp598
S'n02112350'
p599
sg1
(g5
S'\x95'
p600
tp601
Rp602
S'n02109961'
p603
sg1
(g5
S'\x96'
p604
tp605
Rp606
S'n02101388'
p607
sg1
(g5
S'\x97'
p608
tp609
Rp610
S'n02113799'
p611
sg1
(g5
S'\x98'
p612
tp613
Rp614
S'n02095570'
p615
sg1
(g5
S'\x99'
p616
tp617
Rp618
S'n02128757'
p619
sg1
(g5
S'\x9a'
p620
tp621
Rp622
S'n02101006'
p623
sg1
(g5
S'\x9b'
p624
tp625
Rp626
S'n02115641'
p627
sg1
(g5
S'\x9c'
p628
tp629
Rp630
S'n02097209'
p631
sg1
(g5
S'\x9d'
p632
tp633
Rp634
S'n02342885'
p635
sg1
(g5
S'\x9e'
p636
tp637
Rp638
S'n02097474'
p639
sg1
(g5
S'\x9f'
p640
tp641
Rp642
S'n02120079'
p643
sg1
(g5
S'\xa0'
p644
tp645
Rp646
S'n02095314'
p647
sg1
(g5
S'\xa1'
p648
tp649
Rp650
S'n02088238'
p651
sg1
(g5
S'\xa2'
p652
tp653
Rp654
S'n02408429'
p655
sg1
(g5
S'\xa3'
p656
tp657
Rp658
S'n02133161'
p659
sg1
(g5
S'\xa4'
p660
tp661
Rp662
S'n02328150'
p663
sg1
(g5
S'\xa5'
p664
tp665
Rp666
S'n02410509'
p667
sg1
(g5
S'\xa6'
p668
tp669
Rp670
S'n02492660'
p671
sg1
(g5
S'\xa7'
p672
tp673
Rp674
S'n02398521'
p675
sg1
(g5
S'\xa8'
p676
tp677
Rp678
S'n02112137'
p679
sg1
(g5
S'\xa9'
p680
tp681
Rp682
S'n02510455'
p683
sg1
(g5
S'\xaa'
p684
tp685
Rp686
S'n02093428'
p687
sg1
(g5
S'\xab'
p688
tp689
Rp690
S'n02105855'
p691
sg1
(g5
S'\xac'
p692
tp693
Rp694
S'n02111500'
p695
sg1
(g5
S'\xad'
p696
tp697
Rp698
S'n02085620'
p699
sg1
(g5
S'\xae'
p700
tp701
Rp702
S'n02123045'
p703
sg1
(g5
S'\xaf'
p704
tp705
Rp706
S'n02490219'
p707
sg1
(g5
S'\xb0'
p708
tp709
Rp710
S'n02099712'
p711
sg1
(g5
S'\xb1'
p712
tp713
Rp714
S'n02109525'
p715
sg1
(g5
S'\xb2'
p716
tp717
Rp718
S'n02454379'
p719
sg1
(g5
S'\xb3'
p720
tp721
Rp722
S'n02111889'
p723
sg1
(g5
S'\xb4'
p724
tp725
Rp726
S'n02088632'
p727
sg1
(g5
S'\xb5'
p728
tp729
Rp730
S'n02090379'
p731
sg1
(g5
S'\xb6'
p732
tp733
Rp734
S'n02443114'
p735
sg1
(g5
S'\xb7'
p736
tp737
Rp738
S'n02361337'
p739
sg1
(g5
S'\xb8'
p740
tp741
Rp742
S'n02105412'
p743
sg1
(g5
S'\xb9'
p744
tp745
Rp746
S'n02483362'
p747
sg1
(g5
S'\xba'
p748
tp749
Rp750
S'n02437616'
p751
sg1
(g5
S'\xbb'
p752
tp753
Rp754
S'n02107312'
p755
sg1
(g5
S'\xbc'
p756
tp757
Rp758
S'n02325366'
p759
sg1
(g5
S'\xbd'
p760
tp761
Rp762
S'n02091032'
p763
sg1
(g5
S'\xbe'
p764
tp765
Rp766
S'n02129165'
p767
sg1
(g5
S'\xbf'
p768
tp769
Rp770
S'n02102318'
p771
sg1
(g5
S'\xc0'
p772
tp773
Rp774
S'n02100877'
p775
sg1
(g5
S'\xc1'
p776
tp777
Rp778
S'n02074367'
p779
sg1
(g5
S'\xc2'
p780
tp781
Rp782
S'n02504013'
p783
sg1
(g5
S'\xc3'
p784
tp785
Rp786
S'n02363005'
p787
sg1
(g5
S'\xc4'
p788
tp789
Rp790
S'n02102480'
p791
sg1
(g5
S'\xc5'
p792
tp793
Rp794
S'n02113023'
p795
sg1
(g5
S'\xc6'
p796
tp797
Rp798
S'n02086646'
p799
sg1
(g5
S'\xc7'
p800
tp801
Rp802
S'n02497673'
p803
sg1
(g5
S'\xc8'
p804
tp805
Rp806
S'n02087394'
p807
sg1
(g5
S'\xc9'
p808
tp809
Rp810
S'n02127052'
p811
sg1
(g5
S'\xca'
p812
tp813
Rp814
S'n02116738'
p815
sg1
(g5
S'\xcb'
p816
tp817
Rp818
S'n02488291'
p819
sg1
(g5
S'\xcc'
p820
tp821
Rp822
S'n02091244'
p823
sg1
(g5
S'\xcd'
p824
tp825
Rp826
S'n02114367'
p827
sg1
(g5
S'\xce'
p828
tp829
Rp830
S'n02130308'
p831
sg1
(g5
S'\xcf'
p832
tp833
Rp834
S'n02089973'
p835
sg1
(g5
S'\xd0'
p836
tp837
Rp838
S'n02105251'
p839
sg1
(g5
S'\xd1'
p840
tp841
Rp842
S'n02134418'
p843
sg1
(g5
S'\xd2'
p844
tp845
Rp846
S'n02093754'
p847
sg1
(g5
S'\xd3'
p848
tp849
Rp850
S'n02106662'
p851
sg1
(g5
S'\xd4'
p852
tp853
Rp854
S'n02444819'
p855
sg1
(g5
S'\xd5'
p856
tp857
Rp858
S'n01882714'
p859
sg1
(g5
S'\xd6'
p860
tp861
Rp862
S'n01871265'
p863
sg1
(g5
S'\xd7'
p864
tp865
Rp866
S'n01872401'
p867
sg1
(g5
S'\xd8'
p868
tp869
Rp870
S'n01877812'
p871
sg1
(g5
S'\xd9'
p872
tp873
Rp874
S'n01873310'
p875
sg1
(g5
S'\xda'
p876
tp877
Rp878
S'n01883070'
p879
sg1
(g5
S'\xdb'
p880
tp881
Rp882
S'n04086273'
p883
sg1
(g5
S'\xdc'
p884
tp885
Rp886
S'n04507155'
p887
sg1
(g5
S'\xdd'
p888
tp889
Rp890
S'n04147183'
p891
sg1
(g5
S'\xde'
p892
tp893
Rp894
S'n04254680'
p895
sg1
(g5
S'\xdf'
p896
tp897
Rp898
S'n02672831'
p899
sg1
(g5
S'\xe0'
p900
tp901
Rp902
S'n02219486'
p903
sg1
(g5
S'\xe1'
p904
tp905
Rp906
S'n02317335'
p907
sg1
(g5
S'\xe2'
p908
tp909
Rp910
S'n01968897'
p911
sg1
(g5
S'\xe3'
p912
tp913
Rp914
S'n03452741'
p915
sg1
(g5
S'\xe4'
p916
tp917
Rp918
S'n03642806'
p919
sg1
(g5
S'\xe5'
p920
tp921
Rp922
S'n07745940'
p923
sg1
(g5
S'\xe6'
p924
tp925
Rp926
S'n02690373'
p927
sg1
(g5
S'\xe7'
p928
tp929
Rp930
S'n04552348'
p931
sg1
(g5
S'\xe8'
p932
tp933
Rp934
S'n02692877'
p935
sg1
(g5
S'\xe9'
p936
tp937
Rp938
S'n02782093'
p939
sg1
(g5
S'\xea'
p940
tp941
Rp942
S'n04266014'
p943
sg1
(g5
S'\xeb'
p944
tp945
Rp946
S'n03344393'
p947
sg1
(g5
S'\xec'
p948
tp949
Rp950
S'n03447447'
p951
sg1
(g5
S'\xed'
p952
tp953
Rp954
S'n04273569'
p955
sg1
(g5
S'\xee'
p956
tp957
Rp958
S'n03662601'
p959
sg1
(g5
S'\xef'
p960
tp961
Rp962
S'n02951358'
p963
sg1
(g5
S'\xf0'
p964
tp965
Rp966
S'n04612504'
p967
sg1
(g5
S'\xf1'
p968
tp969
Rp970
S'n02981792'
p971
sg1
(g5
S'\xf2'
p972
tp973
Rp974
S'n04483307'
p975
sg1
(g5
S'\xf3'
p976
tp977
Rp978
S'n03095699'
p979
sg1
(g5
S'\xf4'
p980
tp981
Rp982
S'n03673027'
p983
sg1
(g5
S'\xf5'
p984
tp985
Rp986
S'n03947888'
p987
sg1
(g5
S'\xf6'
p988
tp989
Rp990
S'n02687172'
p991
sg1
(g5
S'\xf7'
p992
tp993
Rp994
S'n04347754'
p995
sg1
(g5
S'\xf8'
p996
tp997
Rp998
S'n04606251'
p999
sg1
(g5
S'\xf9'
p1000
tp1001
Rp1002
S'n03478589'
p1003
sg1
(g5
S'\xfa'
p1004
tp1005
Rp1006
S'n04389033'
p1007
sg1
(g5
S'\xfb'
p1008
tp1009
Rp1010
S'n03773504'
p1011
sg1
(g5
S'\xfc'
p1012
tp1013
Rp1014
S'n02860847'
p1015
sg1
(g5
S'\xfd'
p1016
tp1017
Rp1018
S'n03218198'
p1019
sg1
(g5
S'\xfe'
p1020
tp1021
Rp1022
S'n02835271'
p1023
sg1
(g5
S'\xff'
p1024
tp1025
Rp1026
S'n03792782'
p1027
sg1
(g2
(S'u2'
p1028
I0
I1
tp1029
Rp1030
(I3
S'<'
p1031
NNNI-1
I-1
I0
tp1032
bS'\x00\x01'
p1033
tp1034
Rp1035
S'n03393912'
p1036
sg1
(g1030
S'\x01\x01'
p1037
tp1038
Rp1039
S'n03895866'
p1040
sg1
(g1030
S'\x02\x01'
p1041
tp1042
Rp1043
S'n02797295'
p1044
sg1
(g1030
S'\x03\x01'
p1045
tp1046
Rp1047
S'n04204347'
p1048
sg1
(g1030
S'\x04\x01'
p1049
tp1050
Rp1051
S'n03791053'
p1052
sg1
(g1030
S'\x05\x01'
p1053
tp1054
Rp1055
S'n03384352'
p1056
sg1
(g1030
S'\x06\x01'
p1057
tp1058
Rp1059
S'n03272562'
p1060
sg1
(g1030
S'\x07\x01'
p1061
tp1062
Rp1063
S'n04310018'
p1064
sg1
(g1030
S'\x08\x01'
p1065
tp1066
Rp1067
S'n02704792'
p1068
sg1
(g1030
S'\t\x01'
p1069
tp1070
Rp1071
S'n02701002'
p1072
sg1
(g1030
S'\n\x01'
p1073
tp1074
Rp1075
S'n02814533'
p1076
sg1
(g1030
S'\x0b\x01'
p1077
tp1078
Rp1079
S'n02930766'
p1080
sg1
(g1030
S'\x0c\x01'
p1081
tp1082
Rp1083
S'n03100240'
p1084
sg1
(g1030
S'\r\x01'
p1085
tp1086
Rp1087
S'n03594945'
p1088
sg1
(g1030
S'\x0e\x01'
p1089
tp1090
Rp1091
S'n03670208'
p1092
sg1
(g1030
S'\x0f\x01'
p1093
tp1094
Rp1095
S'n03770679'
p1096
sg1
(g1030
S'\x10\x01'
p1097
tp1098
Rp1099
S'n03777568'
p1100
sg1
(g1030
S'\x11\x01'
p1101
tp1102
Rp1103
S'n04037443'
p1104
sg1
(g1030
S'\x12\x01'
p1105
tp1106
Rp1107
S'n04285008'
p1108
sg1
(g1030
S'\x13\x01'
p1109
tp1110
Rp1111
S'n03444034'
p1112
sg1
(g1030
S'\x14\x01'
p1113
tp1114
Rp1115
S'n03445924'
p1116
sg1
(g1030
S'\x15\x01'
p1117
tp1118
Rp1119
S'n03785016'
p1120
sg1
(g1030
S'\x16\x01'
p1121
tp1122
Rp1123
S'n04252225'
p1124
sg1
(g1030
S'\x17\x01'
p1125
tp1126
Rp1127
S'n03345487'
p1128
sg1
(g1030
S'\x18\x01'
p1129
tp1130
Rp1131
S'n03417042'
p1132
sg1
(g1030
S'\x19\x01'
p1133
tp1134
Rp1135
S'n03930630'
p1136
sg1
(g1030
S'\x1a\x01'
p1137
tp1138
Rp1139
S'n04461696'
p1140
sg1
(g1030
S'\x1b\x01'
p1141
tp1142
Rp1143
S'n04467665'
p1144
sg1
(g1030
S'\x1c\x01'
p1145
tp1146
Rp1147
S'n03796401'
p1148
sg1
(g1030
S'\x1d\x01'
p1149
tp1150
Rp1151
S'n03977966'
p1152
sg1
(g1030
S'\x1e\x01'
p1153
tp1154
Rp1155
S'n04065272'
p1156
sg1
(g1030
S'\x1f\x01'
p1157
tp1158
Rp1159
S'n04335435'
p1160
sg1
(g1030
S' \x01'
p1161
tp1162
Rp1163
S'n04252077'
p1164
sg1
(g1030
S'!\x01'
p1165
tp1166
Rp1167
S'n04465501'
p1168
sg1
(g1030
S'"\x01'
p1169
tp1170
Rp1171
S'n03776460'
p1172
sg1
(g1030
S'#\x01'
p1173
tp1174
Rp1175
S'n04482393'
p1176
sg1
(g1030
S'$\x01'
p1177
tp1178
Rp1179
S'n04509417'
p1180
sg1
(g1030
S'%\x01'
p1181
tp1182
Rp1183
S'n03538406'
p1184
sg1
(g1030
S'&\x01'
p1185
tp1186
Rp1187
S'n03599486'
p1188
sg1
(g1030
S"'\x01"
p1189
tp1190
Rp1191
S'n03868242'
p1192
sg1
(g1030
S'(\x01'
p1193
tp1194
Rp1195
S'n02804414'
p1196
sg1
(g1030
S')\x01'
p1197
tp1198
Rp1199
S'n03125729'
p1200
sg1
(g1030
S'*\x01'
p1201
tp1202
Rp1203
S'n03131574'
p1204
sg1
(g1030
S'+\x01'
p1205
tp1206
Rp1207
S'n03388549'
p1208
sg1
(g1030
S',\x01'
p1209
tp1210
Rp1211
S'n02870880'
p1212
sg1
(g1030
S'-\x01'
p1213
tp1214
Rp1215
S'n03018349'
p1216
sg1
(g1030
S'.\x01'
p1217
tp1218
Rp1219
S'n03742115'
p1220
sg1
(g1030
S'/\x01'
p1221
tp1222
Rp1223
S'n03016953'
p1224
sg1
(g1030
S'0\x01'
p1225
tp1226
Rp1227
S'n04380533'
p1228
sg1
(g1030
S'1\x01'
p1229
tp1230
Rp1231
S'n03337140'
p1232
sg1
(g1030
S'2\x01'
p1233
tp1234
Rp1235
S'n03891251'
p1236
sg1
(g1030
S'3\x01'
p1237
tp1238
Rp1239
S'n02791124'
p1240
sg1
(g1030
S'4\x01'
p1241
tp1242
Rp1243
S'n04429376'
p1244
sg1
(g1030
S'5\x01'
p1245
tp1246
Rp1247
S'n03376595'
p1248
sg1
(g1030
S'6\x01'
p1249
tp1250
Rp1251
S'n04099969'
p1252
sg1
(g1030
S'7\x01'
p1253
tp1254
Rp1255
S'n04344873'
p1256
sg1
(g1030
S'8\x01'
p1257
tp1258
Rp1259
S'n04447861'
p1260
sg1
(g1030
S'9\x01'
p1261
tp1262
Rp1263
S'n03179701'
p1264
sg1
(g1030
S':\x01'
p1265
tp1266
Rp1267
S'n03982430'
p1268
sg1
(g1030
S';\x01'
p1269
tp1270
Rp1271
S'n03201208'
p1272
sg1
(g1030
S'<\x01'
p1273
tp1274
Rp1275
S'n03290653'
p1276
sg1
(g1030
S'=\x01'
p1277
tp1278
Rp1279
S'n04550184'
p1280
sg1
(g1030
S'>\x01'
p1281
tp1282
Rp1283
S'n07742313'
p1284
sg1
(g1030
S'?\x01'
p1285
tp1286
Rp1287
S'n07747607'
p1288
sg1
(g1030
S'@\x01'
p1289
tp1290
Rp1291
S'n07749582'
p1292
sg1
(g1030
S'A\x01'
p1293
tp1294
Rp1295
S'n07753113'
p1296
sg1
(g1030
S'B\x01'
p1297
tp1298
Rp1299
S'n07753275'
p1300
sg1
(g1030
S'C\x01'
p1301
tp1302
Rp1303
S'n07753592'
p1304
sg1
(g1030
S'D\x01'
p1305
tp1306
Rp1307
S'n07754684'
p1308
sg1
(g1030
S'E\x01'
p1309
tp1310
Rp1311
S'n07760859'
p1312
sg1
(g1030
S'F\x01'
p1313
tp1314
Rp1315
S'n07768694'
p1316
sg1
(g1030
S'G\x01'
p1317
tp1318
Rp1319
S'n12267677'
p1320
sg1
(g1030
S'H\x01'
p1321
tp1322
Rp1323
S'n12620546'
p1324
sg1
(g1030
S'I\x01'
p1325
tp1326
Rp1327
S'n13133613'
p1328
sg1
(g1030
S'J\x01'
p1329
tp1330
Rp1331
S'n11879895'
p1332
sg1
(g1030
S'K\x01'
p1333
tp1334
Rp1335
S'n12144580'
p1336
sg1
(g1030
S'L\x01'
p1337
tp1338
Rp1339
S'n12768682'
p1340
sg1
(g1030
S'M\x01'
p1341
tp1342
Rp1343
S'n03854065'
p1344
sg1
(g1030
S'N\x01'
p1345
tp1346
Rp1347
S'n04515003'
p1348
sg1
(g1030
S'O\x01'
p1349
tp1350
Rp1351
S'n03017168'
p1352
sg1
(g1030
S'P\x01'
p1353
tp1354
Rp1355
S'n03249569'
p1356
sg1
(g1030
S'Q\x01'
p1357
tp1358
Rp1359
S'n03447721'
p1360
sg1
(g1030
S'R\x01'
p1361
tp1362
Rp1363
S'n03720891'
p1364
sg1
(g1030
S'S\x01'
p1365
tp1366
Rp1367
S'n03721384'
p1368
sg1
(g1030
S'T\x01'
p1369
tp1370
Rp1371
S'n04311174'
p1372
sg1
(g1030
S'U\x01'
p1373
tp1374
Rp1375
S'n02787622'
p1376
sg1
(g1030
S'V\x01'
p1377
tp1378
Rp1379
S'n02992211'
p1380
sg1
(g1030
S'W\x01'
p1381
tp1382
Rp1383
S'n04536866'
p1384
sg1
(g1030
S'X\x01'
p1385
tp1386
Rp1387
S'n03495258'
p1388
sg1
(g1030
S'Y\x01'
p1389
tp1390
Rp1391
S'n02676566'
p1392
sg1
(g1030
S'Z\x01'
p1393
tp1394
Rp1395
S'n03272010'
p1396
sg1
(g1030
S'[\x01'
p1397
tp1398
Rp1399
S'n03110669'
p1400
sg1
(g1030
S'\\\x01'
p1401
tp1402
Rp1403
S'n03394916'
p1404
sg1
(g1030
S']\x01'
p1405
tp1406
Rp1407
S'n04487394'
p1408
sg1
(g1030
S'^\x01'
p1409
tp1410
Rp1411
S'n03494278'
p1412
sg1
(g1030
S'_\x01'
p1413
tp1414
Rp1415
S'n03840681'
p1416
sg1
(g1030
S'`\x01'
p1417
tp1418
Rp1419
S'n03884397'
p1420
sg1
(g1030
S'a\x01'
p1421
tp1422
Rp1423
S'n02804610'
p1424
sg1
(g1030
S'b\x01'
p1425
tp1426
Rp1427
S'n03838899'
p1428
sg1
(g1030
S'c\x01'
p1429
tp1430
Rp1431
S'n04141076'
p1432
sg1
(g1030
S'd\x01'
p1433
tp1434
Rp1435
S'n03372029'
p1436
sg1
(g1030
S'e\x01'
p1437
tp1438
Rp1439
S'n11939491'
p1440
sg1
(g1030
S'f\x01'
p1441
tp1442
Rp1443
S'n12057211'
p1444
sg1
(g1030
S'g\x01'
p1445
tp1446
Rp1447
S'n09246464'
p1448
sg1
(g1030
S'h\x01'
p1449
tp1450
Rp1451
S'n09468604'
p1452
sg1
(g1030
S'i\x01'
p1453
tp1454
Rp1455
S'n09193705'
p1456
sg1
(g1030
S'j\x01'
p1457
tp1458
Rp1459
S'n09472597'
p1460
sg1
(g1030
S'k\x01'
p1461
tp1462
Rp1463
S'n09399592'
p1464
sg1
(g1030
S'l\x01'
p1465
tp1466
Rp1467
S'n09421951'
p1468
sg1
(g1030
S'm\x01'
p1469
tp1470
Rp1471
S'n09256479'
p1472
sg1
(g1030
S'n\x01'
p1473
tp1474
Rp1475
S'n09332890'
p1476
sg1
(g1030
S'o\x01'
p1477
tp1478
Rp1479
S'n09428293'
p1480
sg1
(g1030
S'p\x01'
p1481
tp1482
Rp1483
S'n09288635'
p1484
sg1
(g1030
S'q\x01'
p1485
tp1486
Rp1487
S'n03498962'
p1488
sg1
(g1030
S'r\x01'
p1489
tp1490
Rp1491
S'n03041632'
p1492
sg1
(g1030
S's\x01'
p1493
tp1494
Rp1495
S'n03658185'
p1496
sg1
(g1030
S't\x01'
p1497
tp1498
Rp1499
S'n03954731'
p1500
sg1
(g1030
S'u\x01'
p1501
tp1502
Rp1503
S'n03995372'
p1504
sg1
(g1030
S'v\x01'
p1505
tp1506
Rp1507
S'n03649909'
p1508
sg1
(g1030
S'w\x01'
p1509
tp1510
Rp1511
S'n03481172'
p1512
sg1
(g1030
S'x\x01'
p1513
tp1514
Rp1515
S'n03109150'
p1516
sg1
(g1030
S'y\x01'
p1517
tp1518
Rp1519
S'n02951585'
p1520
sg1
(g1030
S'z\x01'
p1521
tp1522
Rp1523
S'n03970156'
p1524
sg1
(g1030
S'{\x01'
p1525
tp1526
Rp1527
S'n04154565'
p1528
sg1
(g1030
S'|\x01'
p1529
tp1530
Rp1531
S'n04208210'
p1532
sg1
(g1030
S'}\x01'
p1533
tp1534
Rp1535
S'n03967562'
p1536
sg1
(g1030
S'~\x01'
p1537
tp1538
Rp1539
S'n03000684'
p1540
sg1
(g1030
S'\x7f\x01'
p1541
tp1542
Rp1543
S'n01514668'
p1544
sg1
(g1030
S'\x80\x01'
p1545
tp1546
Rp1547
S'n01514859'
p1548
sg1
(g1030
S'\x81\x01'
p1549
tp1550
Rp1551
S'n01518878'
p1552
sg1
(g1030
S'\x82\x01'
p1553
tp1554
Rp1555
S'n01530575'
p1556
sg1
(g1030
S'\x83\x01'
p1557
tp1558
Rp1559
S'n01531178'
p1560
sg1
(g1030
S'\x84\x01'
p1561
tp1562
Rp1563
S'n01532829'
p1564
sg1
(g1030
S'\x85\x01'
p1565
tp1566
Rp1567
S'n01534433'
p1568
sg1
(g1030
S'\x86\x01'
p1569
tp1570
Rp1571
S'n01537544'
p1572
sg1
(g1030
S'\x87\x01'
p1573
tp1574
Rp1575
S'n01558993'
p1576
sg1
(g1030
S'\x88\x01'
p1577
tp1578
Rp1579
S'n01560419'
p1580
sg1
(g1030
S'\x89\x01'
p1581
tp1582
Rp1583
S'n01580077'
p1584
sg1
(g1030
S'\x8a\x01'
p1585
tp1586
Rp1587
S'n01582220'
p1588
sg1
(g1030
S'\x8b\x01'
p1589
tp1590
Rp1591
S'n01592084'
p1592
sg1
(g1030
S'\x8c\x01'
p1593
tp1594
Rp1595
S'n01601694'
p1596
sg1
(g1030
S'\x8d\x01'
p1597
tp1598
Rp1599
S'n01608432'
p1600
sg1
(g1030
S'\x8e\x01'
p1601
tp1602
Rp1603
S'n01614925'
p1604
sg1
(g1030
S'\x8f\x01'
p1605
tp1606
Rp1607
S'n01616318'
p1608
sg1
(g1030
S'\x90\x01'
p1609
tp1610
Rp1611
S'n01622779'
p1612
sg1
(g1030
S'\x91\x01'
p1613
tp1614
Rp1615
S'n01795545'
p1616
sg1
(g1030
S'\x92\x01'
p1617
tp1618
Rp1619
S'n01796340'
p1620
sg1
(g1030
S'\x93\x01'
p1621
tp1622
Rp1623
S'n01797886'
p1624
sg1
(g1030
S'\x94\x01'
p1625
tp1626
Rp1627
S'n01798484'
p1628
sg1
(g1030
S'\x95\x01'
p1629
tp1630
Rp1631
S'n01806143'
p1632
sg1
(g1030
S'\x96\x01'
p1633
tp1634
Rp1635
S'n01806567'
p1636
sg1
(g1030
S'\x97\x01'
p1637
tp1638
Rp1639
S'n01807496'
p1640
sg1
(g1030
S'\x98\x01'
p1641
tp1642
Rp1643
S'n01817953'
p1644
sg1
(g1030
S'\x99\x01'
p1645
tp1646
Rp1647
S'n01818515'
p1648
sg1
(g1030
S'\x9a\x01'
p1649
tp1650
Rp1651
S'n01819313'
p1652
sg1
(g1030
S'\x9b\x01'
p1653
tp1654
Rp1655
S'n01820546'
p1656
sg1
(g1030
S'\x9c\x01'
p1657
tp1658
Rp1659
S'n01824575'
p1660
sg1
(g1030
S'\x9d\x01'
p1661
tp1662
Rp1663
S'n01828970'
p1664
sg1
(g1030
S'\x9e\x01'
p1665
tp1666
Rp1667
S'n01829413'
p1668
sg1
(g1030
S'\x9f\x01'
p1669
tp1670
Rp1671
S'n01833805'
p1672
sg1
(g1030
S'\xa0\x01'
p1673
tp1674
Rp1675
S'n01843065'
p1676
sg1
(g1030
S'\xa1\x01'
p1677
tp1678
Rp1679
S'n01843383'
p1680
sg1
(g1030
S'\xa2\x01'
p1681
tp1682
Rp1683
S'n01847000'
p1684
sg1
(g1030
S'\xa3\x01'
p1685
tp1686
Rp1687
S'n01855032'
p1688
sg1
(g1030
S'\xa4\x01'
p1689
tp1690
Rp1691
S'n01855672'
p1692
sg1
(g1030
S'\xa5\x01'
p1693
tp1694
Rp1695
S'n01860187'
p1696
sg1
(g1030
S'\xa6\x01'
p1697
tp1698
Rp1699
S'n02002556'
p1700
sg1
(g1030
S'\xa7\x01'
p1701
tp1702
Rp1703
S'n02002724'
p1704
sg1
(g1030
S'\xa8\x01'
p1705
tp1706
Rp1707
S'n02006656'
p1708
sg1
(g1030
S'\xa9\x01'
p1709
tp1710
Rp1711
S'n02007558'
p1712
sg1
(g1030
S'\xaa\x01'
p1713
tp1714
Rp1715
S'n02009912'
p1716
sg1
(g1030
S'\xab\x01'
p1717
tp1718
Rp1719
S'n02009229'
p1720
sg1
(g1030
S'\xac\x01'
p1721
tp1722
Rp1723
S'n02011460'
p1724
sg1
(g1030
S'\xad\x01'
p1725
tp1726
Rp1727
S'n02012849'
p1728
sg1
(g1030
S'\xae\x01'
p1729
tp1730
Rp1731
S'n02013706'
p1732
sg1
(g1030
S'\xaf\x01'
p1733
tp1734
Rp1735
S'n02018207'
p1736
sg1
(g1030
S'\xb0\x01'
p1737
tp1738
Rp1739
S'n02018795'
p1740
sg1
(g1030
S'\xb1\x01'
p1741
tp1742
Rp1743
S'n02025239'
p1744
sg1
(g1030
S'\xb2\x01'
p1745
tp1746
Rp1747
S'n02027492'
p1748
sg1
(g1030
S'\xb3\x01'
p1749
tp1750
Rp1751
S'n02028035'
p1752
sg1
(g1030
S'\xb4\x01'
p1753
tp1754
Rp1755
S'n02033041'
p1756
sg1
(g1030
S'\xb5\x01'
p1757
tp1758
Rp1759
S'n02037110'
p1760
sg1
(g1030
S'\xb6\x01'
p1761
tp1762
Rp1763
S'n02017213'
p1764
sg1
(g1030
S'\xb7\x01'
p1765
tp1766
Rp1767
S'n02051845'
p1768
sg1
(g1030
S'\xb8\x01'
p1769
tp1770
Rp1771
S'n02056570'
p1772
sg1
(g1030
S'\xb9\x01'
p1773
tp1774
Rp1775
S'n02058221'
p1776
sg1
(g1030
S'\xba\x01'
p1777
tp1778
Rp1779
S'n01484850'
p1780
sg1
(g1030
S'\xbb\x01'
p1781
tp1782
Rp1783
S'n01491361'
p1784
sg1
(g1030
S'\xbc\x01'
p1785
tp1786
Rp1787
S'n01494475'
p1788
sg1
(g1030
S'\xbd\x01'
p1789
tp1790
Rp1791
S'n01496331'
p1792
sg1
(g1030
S'\xbe\x01'
p1793
tp1794
Rp1795
S'n01498041'
p1796
sg1
(g1030
S'\xbf\x01'
p1797
tp1798
Rp1799
S'n02514041'
p1800
sg1
(g1030
S'\xc0\x01'
p1801
tp1802
Rp1803
S'n02536864'
p1804
sg1
(g1030
S'\xc1\x01'
p1805
tp1806
Rp1807
S'n01440764'
p1808
sg1
(g1030
S'\xc2\x01'
p1809
tp1810
Rp1811
S'n01443537'
p1812
sg1
(g1030
S'\xc3\x01'
p1813
tp1814
Rp1815
S'n02526121'
p1816
sg1
(g1030
S'\xc4\x01'
p1817
tp1818
Rp1819
S'n02606052'
p1820
sg1
(g1030
S'\xc5\x01'
p1821
tp1822
Rp1823
S'n02607072'
p1824
sg1
(g1030
S'\xc6\x01'
p1825
tp1826
Rp1827
S'n02643566'
p1828
sg1
(g1030
S'\xc7\x01'
p1829
tp1830
Rp1831
S'n02655020'
p1832
sg1
(g1030
S'\xc8\x01'
p1833
tp1834
Rp1835
S'n02640242'
p1836
sg1
(g1030
S'\xc9\x01'
p1837
tp1838
Rp1839
S'n02641379'
p1840
sg1
(g1030
S'\xca\x01'
p1841
tp1842
Rp1843
S'n01664065'
p1844
sg1
(g1030
S'\xcb\x01'
p1845
tp1846
Rp1847
S'n01665541'
p1848
sg1
(g1030
S'\xcc\x01'
p1849
tp1850
Rp1851
S'n01667114'
p1852
sg1
(g1030
S'\xcd\x01'
p1853
tp1854
Rp1855
S'n01667778'
p1856
sg1
(g1030
S'\xce\x01'
p1857
tp1858
Rp1859
S'n01669191'
p1860
sg1
(g1030
S'\xcf\x01'
p1861
tp1862
Rp1863
S'n01675722'
p1864
sg1
(g1030
S'\xd0\x01'
p1865
tp1866
Rp1867
S'n01677366'
p1868
sg1
(g1030
S'\xd1\x01'
p1869
tp1870
Rp1871
S'n01682714'
p1872
sg1
(g1030
S'\xd2\x01'
p1873
tp1874
Rp1875
S'n01685808'
p1876
sg1
(g1030
S'\xd3\x01'
p1877
tp1878
Rp1879
S'n01687978'
p1880
sg1
(g1030
S'\xd4\x01'
p1881
tp1882
Rp1883
S'n01688243'
p1884
sg1
(g1030
S'\xd5\x01'
p1885
tp1886
Rp1887
S'n01689811'
p1888
sg1
(g1030
S'\xd6\x01'
p1889
tp1890
Rp1891
S'n01692333'
p1892
sg1
(g1030
S'\xd7\x01'
p1893
tp1894
Rp1895
S'n01693334'
p1896
sg1
(g1030
S'\xd8\x01'
p1897
tp1898
Rp1899
S'n01694178'
p1900
sg1
(g1030
S'\xd9\x01'
p1901
tp1902
Rp1903
S'n01695060'
p1904
sg1
(g1030
S'\xda\x01'
p1905
tp1906
Rp1907
S'n01704323'
p1908
sg1
(g1030
S'\xdb\x01'
p1909
tp1910
Rp1911
S'n01697457'
p1912
sg1
(g1030
S'\xdc\x01'
p1913
tp1914
Rp1915
S'n01698640'
p1916
sg1
(g1030
S'\xdd\x01'
p1917
tp1918
Rp1919
S'n01728572'
p1920
sg1
(g1030
S'\xde\x01'
p1921
tp1922
Rp1923
S'n01728920'
p1924
sg1
(g1030
S'\xdf\x01'
p1925
tp1926
Rp1927
S'n01729322'
p1928
sg1
(g1030
S'\xe0\x01'
p1929
tp1930
Rp1931
S'n01729977'
p1932
sg1
(g1030
S'\xe1\x01'
p1933
tp1934
Rp1935
S'n01734418'
p1936
sg1
(g1030
S'\xe2\x01'
p1937
tp1938
Rp1939
S'n01735189'
p1940
sg1
(g1030
S'\xe3\x01'
p1941
tp1942
Rp1943
S'n01737021'
p1944
sg1
(g1030
S'\xe4\x01'
p1945
tp1946
Rp1947
S'n01739381'
p1948
sg1
(g1030
S'\xe5\x01'
p1949
tp1950
Rp1951
S'n01740131'
p1952
sg1
(g1030
S'\xe6\x01'
p1953
tp1954
Rp1955
S'n01742172'
p1956
sg1
(g1030
S'\xe7\x01'
p1957
tp1958
Rp1959
S'n01744401'
p1960
sg1
(g1030
S'\xe8\x01'
p1961
tp1962
Rp1963
S'n01748264'
p1964
sg1
(g1030
S'\xe9\x01'
p1965
tp1966
Rp1967
S'n01749939'
p1968
sg1
(g1030
S'\xea\x01'
p1969
tp1970
Rp1971
S'n01751748'
p1972
sg1
(g1030
S'\xeb\x01'
p1973
tp1974
Rp1975
S'n01753488'
p1976
sg1
(g1030
S'\xec\x01'
p1977
tp1978
Rp1979
S'n01755581'
p1980
sg1
(g1030
S'\xed\x01'
p1981
tp1982
Rp1983
S'n01756291'
p1984
sg1
(g1030
S'\xee\x01'
p1985
tp1986
Rp1987
S'n01629819'
p1988
sg1
(g1030
S'\xef\x01'
p1989
tp1990
Rp1991
S'n01630670'
p1992
sg1
(g1030
S'\xf0\x01'
p1993
tp1994
Rp1995
S'n01631663'
p1996
sg1
(g1030
S'\xf1\x01'
p1997
tp1998
Rp1999
S'n01632458'
p2000
sg1
(g1030
S'\xf2\x01'
p2001
tp2002
Rp2003
S'n01632777'
p2004
sg1
(g1030
S'\xf3\x01'
p2005
tp2006
Rp2007
S'n01641577'
p2008
sg1
(g1030
S'\xf4\x01'
p2009
tp2010
Rp2011
S'n01644373'
p2012
sg1
(g1030
S'\xf5\x01'
p2013
tp2014
Rp2015
S'n01644900'
p2016
sg1
(g1030
S'\xf6\x01'
p2017
tp2018
Rp2019
S'n04579432'
p2020
sg1
(g1030
S'\xf7\x01'
p2021
tp2022
Rp2023
S'n04592741'
p2024
sg1
(g1030
S'\xf8\x01'
p2025
tp2026
Rp2027
S'n03876231'
p2028
sg1
(g1030
S'\xf9\x01'
p2029
tp2030
Rp2031
S'n03483316'
p2032
sg1
(g1030
S'\xfa\x01'
p2033
tp2034
Rp2035
S'n03868863'
p2036
sg1
(g1030
S'\xfb\x01'
p2037
tp2038
Rp2039
S'n04251144'
p2040
sg1
(g1030
S'\xfc\x01'
p2041
tp2042
Rp2043
S'n03691459'
p2044
sg1
(g1030
S'\xfd\x01'
p2045
tp2046
Rp2047
S'n03759954'
p2048
sg1
(g1030
S'\xfe\x01'
p2049
tp2050
Rp2051
S'n04152593'
p2052
sg1
(g1030
S'\xff\x01'
p2053
tp2054
Rp2055
S'n03793489'
p2056
sg1
(g1030
S'\x00\x02'
p2057
tp2058
Rp2059
S'n03271574'
p2060
sg1
(g1030
S'\x01\x02'
p2061
tp2062
Rp2063
S'n03843555'
p2064
sg1
(g1030
S'\x02\x02'
p2065
tp2066
Rp2067
S'n04332243'
p2068
sg1
(g1030
S'\x03\x02'
p2069
tp2070
Rp2071
S'n04265275'
p2072
sg1
(g1030
S'\x04\x02'
p2073
tp2074
Rp2075
S'n04330267'
p2076
sg1
(g1030
S'\x05\x02'
p2077
tp2078
Rp2079
S'n03467068'
p2080
sg1
(g1030
S'\x06\x02'
p2081
tp2082
Rp2083
S'n02794156'
p2084
sg1
(g1030
S'\x07\x02'
p2085
tp2086
Rp2087
S'n04118776'
p2088
sg1
(g1030
S'\x08\x02'
p2089
tp2090
Rp2091
S'n03841143'
p2092
sg1
(g1030
S'\t\x02'
p2093
tp2094
Rp2095
S'n04141975'
p2096
sg1
(g1030
S'\n\x02'
p2097
tp2098
Rp2099
S'n02708093'
p2100
sg1
(g1030
S'\x0b\x02'
p2101
tp2102
Rp2103
S'n03196217'
p2104
sg1
(g1030
S'\x0c\x02'
p2105
tp2106
Rp2107
S'n04548280'
p2108
sg1
(g1030
S'\r\x02'
p2109
tp2110
Rp2111
S'n03544143'
p2112
sg1
(g1030
S'\x0e\x02'
p2113
tp2114
Rp2115
S'n04355338'
p2116
sg1
(g1030
S'\x0f\x02'
p2117
tp2118
Rp2119
S'n03891332'
p2120
sg1
(g1030
S'\x10\x02'
p2121
tp2122
Rp2123
S'n04328186'
p2124
sg1
(g1030
S'\x11\x02'
p2125
tp2126
Rp2127
S'n03197337'
p2128
sg1
(g1030
S'\x12\x02'
p2129
tp2130
Rp2131
S'n04317175'
p2132
sg1
(g1030
S'\x13\x02'
p2133
tp2134
Rp2135
S'n04376876'
p2136
sg1
(g1030
S'\x14\x02'
p2137
tp2138
Rp2139
S'n03706229'
p2140
sg1
(g1030
S'\x15\x02'
p2141
tp2142
Rp2143
S'n02841315'
p2144
sg1
(g1030
S'\x16\x02'
p2145
tp2146
Rp2147
S'n04009552'
p2148
sg1
(g1030
S'\x17\x02'
p2149
tp2150
Rp2151
S'n04356056'
p2152
sg1
(g1030
S'\x18\x02'
p2153
tp2154
Rp2155
S'n03692522'
p2156
sg1
(g1030
S'\x19\x02'
p2157
tp2158
Rp2159
S'n04044716'
p2160
sg1
(g1030
S'\x1a\x02'
p2161
tp2162
Rp2163
S'n02879718'
p2164
sg1
(g1030
S'\x1b\x02'
p2165
tp2166
Rp2167
S'n02950826'
p2168
sg1
(g1030
S'\x1c\x02'
p2169
tp2170
Rp2171
S'n02749479'
p2172
sg1
(g1030
S'\x1d\x02'
p2173
tp2174
Rp2175
S'n04090263'
p2176
sg1
(g1030
S'\x1e\x02'
p2177
tp2178
Rp2179
S'n04008634'
p2180
sg1
(g1030
S'\x1f\x02'
p2181
tp2182
Rp2183
S'n03085013'
p2184
sg1
(g1030
S' \x02'
p2185
tp2186
Rp2187
S'n04505470'
p2188
sg1
(g1030
S'!\x02'
p2189
tp2190
Rp2191
S'n03126707'
p2192
sg1
(g1030
S'"\x02'
p2193
tp2194
Rp2195
S'n03666591'
p2196
sg1
(g1030
S'#\x02'
p2197
tp2198
Rp2199
S'n02666196'
p2200
sg1
(g1030
S'$\x02'
p2201
tp2202
Rp2203
S'n02977058'
p2204
sg1
(g1030
S'%\x02'
p2205
tp2206
Rp2207
S'n04238763'
p2208
sg1
(g1030
S'&\x02'
p2209
tp2210
Rp2211
S'n03180011'
p2212
sg1
(g1030
S"'\x02"
p2213
tp2214
Rp2215
S'n03485407'
p2216
sg1
(g1030
S'(\x02'
p2217
tp2218
Rp2219
S'n03832673'
p2220
sg1
(g1030
S')\x02'
p2221
tp2222
Rp2223
S'n06359193'
p2224
sg1
(g1030
S'*\x02'
p2225
tp2226
Rp2227
S'n03496892'
p2228
sg1
(g1030
S'+\x02'
p2229
tp2230
Rp2231
S'n04428191'
p2232
sg1
(g1030
S',\x02'
p2233
tp2234
Rp2235
S'n04004767'
p2236
sg1
(g1030
S'-\x02'
p2237
tp2238
Rp2239
S'n04243546'
p2240
sg1
(g1030
S'.\x02'
p2241
tp2242
Rp2243
S'n04525305'
p2244
sg1
(g1030
S'/\x02'
p2245
tp2246
Rp2247
S'n04179913'
p2248
sg1
(g1030
S'0\x02'
p2249
tp2250
Rp2251
S'n03602883'
p2252
sg1
(g1030
S'1\x02'
p2253
tp2254
Rp2255
S'n04372370'
p2256
sg1
(g1030
S'2\x02'
p2257
tp2258
Rp2259
S'n03532672'
p2260
sg1
(g1030
S'3\x02'
p2261
tp2262
Rp2263
S'n02974003'
p2264
sg1
(g1030
S'4\x02'
p2265
tp2266
Rp2267
S'n03874293'
p2268
sg1
(g1030
S'5\x02'
p2269
tp2270
Rp2271
S'n03944341'
p2272
sg1
(g1030
S'6\x02'
p2273
tp2274
Rp2275
S'n03992509'
p2276
sg1
(g1030
S'7\x02'
p2277
tp2278
Rp2279
S'n03425413'
p2280
sg1
(g1030
S'8\x02'
p2281
tp2282
Rp2283
S'n02966193'
p2284
sg1
(g1030
S'9\x02'
p2285
tp2286
Rp2287
S'n04371774'
p2288
sg1
(g1030
S':\x02'
p2289
tp2290
Rp2291
S'n04067472'
p2292
sg1
(g1030
S';\x02'
p2293
tp2294
Rp2295
S'n04040759'
p2296
sg1
(g1030
S'<\x02'
p2297
tp2298
Rp2299
S'n04019541'
p2300
sg1
(g1030
S'=\x02'
p2301
tp2302
Rp2303
S'n03492542'
p2304
sg1
(g1030
S'>\x02'
p2305
tp2306
Rp2307
S'n04355933'
p2308
sg1
(g1030
S'?\x02'
p2309
tp2310
Rp2311
S'n03929660'
p2312
sg1
(g1030
S'@\x02'
p2313
tp2314
Rp2315
S'n02965783'
p2316
sg1
(g1030
S'A\x02'
p2317
tp2318
Rp2319
S'n04258138'
p2320
sg1
(g1030
S'B\x02'
p2321
tp2322
Rp2323
S'n04074963'
p2324
sg1
(g1030
S'C\x02'
p2325
tp2326
Rp2327
S'n03208938'
p2328
sg1
(g1030
S'D\x02'
p2329
tp2330
Rp2331
S'n02910353'
p2332
sg1
(g1030
S'E\x02'
p2333
tp2334
Rp2335
S'n03476684'
p2336
sg1
(g1030
S'F\x02'
p2337
tp2338
Rp2339
S'n03627232'
p2340
sg1
(g1030
S'G\x02'
p2341
tp2342
Rp2343
S'n03075370'
p2344
sg1
(g1030
S'H\x02'
p2345
tp2346
Rp2347
S'n03874599'
p2348
sg1
(g1030
S'I\x02'
p2349
tp2350
Rp2351
S'n03804744'
p2352
sg1
(g1030
S'J\x02'
p2353
tp2354
Rp2355
S'n04127249'
p2356
sg1
(g1030
S'K\x02'
p2357
tp2358
Rp2359
S'n04153751'
p2360
sg1
(g1030
S'L\x02'
p2361
tp2362
Rp2363
S'n03803284'
p2364
sg1
(g1030
S'M\x02'
p2365
tp2366
Rp2367
S'n04162706'
p2368
sg1
(g1030
S'N\x02'
p2369
tp2370
Rp2371
S'n04228054'
p2372
sg1
(g1030
S'O\x02'
p2373
tp2374
Rp2375
S'n02948072'
p2376
sg1
(g1030
S'P\x02'
p2377
tp2378
Rp2379
S'n03590841'
p2380
sg1
(g1030
S'Q\x02'
p2381
tp2382
Rp2383
S'n04286575'
p2384
sg1
(g1030
S'R\x02'
p2385
tp2386
Rp2387
S'n04456115'
p2388
sg1
(g1030
S'S\x02'
p2389
tp2390
Rp2391
S'n03814639'
p2392
sg1
(g1030
S'T\x02'
p2393
tp2394
Rp2395
S'n03933933'
p2396
sg1
(g1030
S'U\x02'
p2397
tp2398
Rp2399
S'n04485082'
p2400
sg1
(g1030
S'V\x02'
p2401
tp2402
Rp2403
S'n03733131'
p2404
sg1
(g1030
S'W\x02'
p2405
tp2406
Rp2407
S'n03794056'
p2408
sg1
(g1030
S'X\x02'
p2409
tp2410
Rp2411
S'n04275548'
p2412
sg1
(g1030
S'Y\x02'
p2413
tp2414
Rp2415
S'n01768244'
p2416
sg1
(g1030
S'Z\x02'
p2417
tp2418
Rp2419
S'n01770081'
p2420
sg1
(g1030
S'[\x02'
p2421
tp2422
Rp2423
S'n01770393'
p2424
sg1
(g1030
S'\\\x02'
p2425
tp2426
Rp2427
S'n01773157'
p2428
sg1
(g1030
S']\x02'
p2429
tp2430
Rp2431
S'n01773549'
p2432
sg1
(g1030
S'^\x02'
p2433
tp2434
Rp2435
S'n01773797'
p2436
sg1
(g1030
S'_\x02'
p2437
tp2438
Rp2439
S'n01774384'
p2440
sg1
(g1030
S'`\x02'
p2441
tp2442
Rp2443
S'n01774750'
p2444
sg1
(g1030
S'a\x02'
p2445
tp2446
Rp2447
S'n01775062'
p2448
sg1
(g1030
S'b\x02'
p2449
tp2450
Rp2451
S'n01776313'
p2452
sg1
(g1030
S'c\x02'
p2453
tp2454
Rp2455
S'n01784675'
p2456
sg1
(g1030
S'd\x02'
p2457
tp2458
Rp2459
S'n01990800'
p2460
sg1
(g1030
S'e\x02'
p2461
tp2462
Rp2463
S'n01978287'
p2464
sg1
(g1030
S'f\x02'
p2465
tp2466
Rp2467
S'n01978455'
p2468
sg1
(g1030
S'g\x02'
p2469
tp2470
Rp2471
S'n01980166'
p2472
sg1
(g1030
S'h\x02'
p2473
tp2474
Rp2475
S'n01981276'
p2476
sg1
(g1030
S'i\x02'
p2477
tp2478
Rp2479
S'n01983481'
p2480
sg1
(g1030
S'j\x02'
p2481
tp2482
Rp2483
S'n01984695'
p2484
sg1
(g1030
S'k\x02'
p2485
tp2486
Rp2487
S'n01985128'
p2488
sg1
(g1030
S'l\x02'
p2489
tp2490
Rp2491
S'n01986214'
p2492
sg1
(g1030
S'm\x02'
p2493
tp2494
Rp2495
S'n02165105'
p2496
sg1
(g1030
S'n\x02'
p2497
tp2498
Rp2499
S'n02165456'
p2500
sg1
(g1030
S'o\x02'
p2501
tp2502
Rp2503
S'n02167151'
p2504
sg1
(g1030
S'p\x02'
p2505
tp2506
Rp2507
S'n02168699'
p2508
sg1
(g1030
S'q\x02'
p2509
tp2510
Rp2511
S'n02169497'
p2512
sg1
(g1030
S'r\x02'
p2513
tp2514
Rp2515
S'n02172182'
p2516
sg1
(g1030
S's\x02'
p2517
tp2518
Rp2519
S'n02174001'
p2520
sg1
(g1030
S't\x02'
p2521
tp2522
Rp2523
S'n02177972'
p2524
sg1
(g1030
S'u\x02'
p2525
tp2526
Rp2527
S'n02190166'
p2528
sg1
(g1030
S'v\x02'
p2529
tp2530
Rp2531
S'n02206856'
p2532
sg1
(g1030
S'w\x02'
p2533
tp2534
Rp2535
S'n02226429'
p2536
sg1
(g1030
S'x\x02'
p2537
tp2538
Rp2539
S'n02229544'
p2540
sg1
(g1030
S'y\x02'
p2541
tp2542
Rp2543
S'n02231487'
p2544
sg1
(g1030
S'z\x02'
p2545
tp2546
Rp2547
S'n02233338'
p2548
sg1
(g1030
S'{\x02'
p2549
tp2550
Rp2551
S'n02236044'
p2552
sg1
(g1030
S'|\x02'
p2553
tp2554
Rp2555
S'n02256656'
p2556
sg1
(g1030
S'}\x02'
p2557
tp2558
Rp2559
S'n02259212'
p2560
sg1
(g1030
S'~\x02'
p2561
tp2562
Rp2563
S'n02264363'
p2564
sg1
(g1030
S'\x7f\x02'
p2565
tp2566
Rp2567
S'n02268443'
p2568
sg1
(g1030
S'\x80\x02'
p2569
tp2570
Rp2571
S'n02268853'
p2572
sg1
(g1030
S'\x81\x02'
p2573
tp2574
Rp2575
S'n02276258'
p2576
sg1
(g1030
S'\x82\x02'
p2577
tp2578
Rp2579
S'n02277742'
p2580
sg1
(g1030
S'\x83\x02'
p2581
tp2582
Rp2583
S'n02279972'
p2584
sg1
(g1030
S'\x84\x02'
p2585
tp2586
Rp2587
S'n02280649'
p2588
sg1
(g1030
S'\x85\x02'
p2589
tp2590
Rp2591
S'n02281406'
p2592
sg1
(g1030
S'\x86\x02'
p2593
tp2594
Rp2595
S'n02281787'
p2596
sg1
(g1030
S'\x87\x02'
p2597
tp2598
Rp2599
S'n01910747'
p2600
sg1
(g1030
S'\x88\x02'
p2601
tp2602
Rp2603
S'n01914609'
p2604
sg1
(g1030
S'\x89\x02'
p2605
tp2606
Rp2607
S'n01917289'
p2608
sg1
(g1030
S'\x8a\x02'
p2609
tp2610
Rp2611
S'n01924916'
p2612
sg1
(g1030
S'\x8b\x02'
p2613
tp2614
Rp2615
S'n01930112'
p2616
sg1
(g1030
S'\x8c\x02'
p2617
tp2618
Rp2619
S'n01943899'
p2620
sg1
(g1030
S'\x8d\x02'
p2621
tp2622
Rp2623
S'n01944390'
p2624
sg1
(g1030
S'\x8e\x02'
p2625
tp2626
Rp2627
S'n01945685'
p2628
sg1
(g1030
S'\x8f\x02'
p2629
tp2630
Rp2631
S'n01950731'
p2632
sg1
(g1030
S'\x90\x02'
p2633
tp2634
Rp2635
S'n01955084'
p2636
sg1
(g1030
S'\x91\x02'
p2637
tp2638
Rp2639
S'n02319095'
p2640
sg1
(g1030
S'\x92\x02'
p2641
tp2642
Rp2643
S'n02321529'
p2644
sg1
(g1030
S'\x93\x02'
p2645
tp2646
Rp2647
S'n03584829'
p2648
sg1
(g1030
S'\x94\x02'
p2649
tp2650
Rp2651
S'n03297495'
p2652
sg1
(g1030
S'\x95\x02'
p2653
tp2654
Rp2655
S'n03761084'
p2656
sg1
(g1030
S'\x96\x02'
p2657
tp2658
Rp2659
S'n03259280'
p2660
sg1
(g1030
S'\x97\x02'
p2661
tp2662
Rp2663
S'n04111531'
p2664
sg1
(g1030
S'\x98\x02'
p2665
tp2666
Rp2667
S'n04442312'
p2668
sg1
(g1030
S'\x99\x02'
p2669
tp2670
Rp2671
S'n04542943'
p2672
sg1
(g1030
S'\x9a\x02'
p2673
tp2674
Rp2675
S'n04517823'
p2676
sg1
(g1030
S'\x9b\x02'
p2677
tp2678
Rp2679
S'n03207941'
p2680
sg1
(g1030
S'\x9c\x02'
p2681
tp2682
Rp2683
S'n04070727'
p2684
sg1
(g1030
S'\x9d\x02'
p2685
tp2686
Rp2687
S'n04554684'
p2688
sg1
(g1030
S'\x9e\x02'
p2689
tp2690
Rp2691
S'n03133878'
p2692
sg1
(g1030
S'\x9f\x02'
p2693
tp2694
Rp2695
S'n03400231'
p2696
sg1
(g1030
S'\xa0\x02'
p2697
tp2698
Rp2699
S'n04596742'
p2700
sg1
(g1030
S'\xa1\x02'
p2701
tp2702
Rp2703
S'n02939185'
p2704
sg1
(g1030
S'\xa2\x02'
p2705
tp2706
Rp2707
S'n03063689'
p2708
sg1
(g1030
S'\xa3\x02'
p2709
tp2710
Rp2711
S'n04398044'
p2712
sg1
(g1030
S'\xa4\x02'
p2713
tp2714
Rp2715
S'n04270147'
p2716
sg1
(g1030
S'\xa5\x02'
p2717
tp2718
Rp2719
S'n02699494'
p2720
sg1
(g1030
S'\xa6\x02'
p2721
tp2722
Rp2723
S'n04486054'
p2724
sg1
(g1030
S'\xa7\x02'
p2725
tp2726
Rp2727
S'n03899768'
p2728
sg1
(g1030
S'\xa8\x02'
p2729
tp2730
Rp2731
S'n04311004'
p2732
sg1
(g1030
S'\xa9\x02'
p2733
tp2734
Rp2735
S'n04366367'
p2736
sg1
(g1030
S'\xaa\x02'
p2737
tp2738
Rp2739
S'n04532670'
p2740
sg1
(g1030
S'\xab\x02'
p2741
tp2742
Rp2743
S'n02793495'
p2744
sg1
(g1030
S'\xac\x02'
p2745
tp2746
Rp2747
S'n03457902'
p2748
sg1
(g1030
S'\xad\x02'
p2749
tp2750
Rp2751
S'n03877845'
p2752
sg1
(g1030
S'\xae\x02'
p2753
tp2754
Rp2755
S'n03781244'
p2756
sg1
(g1030
S'\xaf\x02'
p2757
tp2758
Rp2759
S'n03661043'
p2760
sg1
(g1030
S'\xb0\x02'
p2761
tp2762
Rp2763
S'n02727426'
p2764
sg1
(g1030
S'\xb1\x02'
p2765
tp2766
Rp2767
S'n02859443'
p2768
sg1
(g1030
S'\xb2\x02'
p2769
tp2770
Rp2771
S'n03028079'
p2772
sg1
(g1030
S'\xb3\x02'
p2773
tp2774
Rp2775
S'n03788195'
p2776
sg1
(g1030
S'\xb4\x02'
p2777
tp2778
Rp2779
S'n04346328'
p2780
sg1
(g1030
S'\xb5\x02'
p2781
tp2782
Rp2783
S'n03956157'
p2784
sg1
(g1030
S'\xb6\x02'
p2785
tp2786
Rp2787
S'n04081281'
p2788
sg1
(g1030
S'\xb7\x02'
p2789
tp2790
Rp2791
S'n03032252'
p2792
sg1
(g1030
S'\xb8\x02'
p2793
tp2794
Rp2795
S'n03529860'
p2796
sg1
(g1030
S'\xb9\x02'
p2797
tp2798
Rp2799
S'n03697007'
p2800
sg1
(g1030
S'\xba\x02'
p2801
tp2802
Rp2803
S'n03065424'
p2804
sg1
(g1030
S'\xbb\x02'
p2805
tp2806
Rp2807
S'n03837869'
p2808
sg1
(g1030
S'\xbc\x02'
p2809
tp2810
Rp2811
S'n04458633'
p2812
sg1
(g1030
S'\xbd\x02'
p2813
tp2814
Rp2815
S'n02980441'
p2816
sg1
(g1030
S'\xbe\x02'
p2817
tp2818
Rp2819
S'n04005630'
p2820
sg1
(g1030
S'\xbf\x02'
p2821
tp2822
Rp2823
S'n03461385'
p2824
sg1
(g1030
S'\xc0\x02'
p2825
tp2826
Rp2827
S'n02776631'
p2828
sg1
(g1030
S'\xc1\x02'
p2829
tp2830
Rp2831
S'n02791270'
p2832
sg1
(g1030
S'\xc2\x02'
p2833
tp2834
Rp2835
S'n02871525'
p2836
sg1
(g1030
S'\xc3\x02'
p2837
tp2838
Rp2839
S'n02927161'
p2840
sg1
(g1030
S'\xc4\x02'
p2841
tp2842
Rp2843
S'n03089624'
p2844
sg1
(g1030
S'\xc5\x02'
p2845
tp2846
Rp2847
S'n04200800'
p2848
sg1
(g1030
S'\xc6\x02'
p2849
tp2850
Rp2851
S'n04443257'
p2852
sg1
(g1030
S'\xc7\x02'
p2853
tp2854
Rp2855
S'n04462240'
p2856
sg1
(g1030
S'\xc8\x02'
p2857
tp2858
Rp2859
S'n03388043'
p2860
sg1
(g1030
S'\xc9\x02'
p2861
tp2862
Rp2863
S'n03042490'
p2864
sg1
(g1030
S'\xca\x02'
p2865
tp2866
Rp2867
S'n04613696'
p2868
sg1
(g1030
S'\xcb\x02'
p2869
tp2870
Rp2871
S'n03216828'
p2872
sg1
(g1030
S'\xcc\x02'
p2873
tp2874
Rp2875
S'n02892201'
p2876
sg1
(g1030
S'\xcd\x02'
p2877
tp2878
Rp2879
S'n03743016'
p2880
sg1
(g1030
S'\xce\x02'
p2881
tp2882
Rp2883
S'n02788148'
p2884
sg1
(g1030
S'\xcf\x02'
p2885
tp2886
Rp2887
S'n02894605'
p2888
sg1
(g1030
S'\xd0\x02'
p2889
tp2890
Rp2891
S'n03160309'
p2892
sg1
(g1030
S'\xd1\x02'
p2893
tp2894
Rp2895
S'n03000134'
p2896
sg1
(g1030
S'\xd2\x02'
p2897
tp2898
Rp2899
S'n03930313'
p2900
sg1
(g1030
S'\xd3\x02'
p2901
tp2902
Rp2903
S'n04604644'
p2904
sg1
(g1030
S'\xd4\x02'
p2905
tp2906
Rp2907
S'n04326547'
p2908
sg1
(g1030
S'\xd5\x02'
p2909
tp2910
Rp2911
S'n03459775'
p2912
sg1
(g1030
S'\xd6\x02'
p2913
tp2914
Rp2915
S'n04239074'
p2916
sg1
(g1030
S'\xd7\x02'
p2917
tp2918
Rp2919
S'n04501370'
p2920
sg1
(g1030
S'\xd8\x02'
p2921
tp2922
Rp2923
S'n03792972'
p2924
sg1
(g1030
S'\xd9\x02'
p2925
tp2926
Rp2927
S'n04149813'
p2928
sg1
(g1030
S'\xda\x02'
p2929
tp2930
Rp2931
S'n03530642'
p2932
sg1
(g1030
S'\xdb\x02'
p2933
tp2934
Rp2935
S'n03961711'
p2936
sg1
(g1030
S'\xdc\x02'
p2937
tp2938
Rp2939
S'n03903868'
p2940
sg1
(g1030
S'\xdd\x02'
p2941
tp2942
Rp2943
S'n02814860'
p2944
sg1
(g1030
S'\xde\x02'
p2945
tp2946
Rp2947
S'n07711569'
p2948
sg1
(g1030
S'\xdf\x02'
p2949
tp2950
Rp2951
S'n07720875'
p2952
sg1
(g1030
S'\xe0\x02'
p2953
tp2954
Rp2955
S'n07714571'
p2956
sg1
(g1030
S'\xe1\x02'
p2957
tp2958
Rp2959
S'n07714990'
p2960
sg1
(g1030
S'\xe2\x02'
p2961
tp2962
Rp2963
S'n07715103'
p2964
sg1
(g1030
S'\xe3\x02'
p2965
tp2966
Rp2967
S'n07716358'
p2968
sg1
(g1030
S'\xe4\x02'
p2969
tp2970
Rp2971
S'n07716906'
p2972
sg1
(g1030
S'\xe5\x02'
p2973
tp2974
Rp2975
S'n07717410'
p2976
sg1
(g1030
S'\xe6\x02'
p2977
tp2978
Rp2979
S'n07717556'
p2980
sg1
(g1030
S'\xe7\x02'
p2981
tp2982
Rp2983
S'n07718472'
p2984
sg1
(g1030
S'\xe8\x02'
p2985
tp2986
Rp2987
S'n07718747'
p2988
sg1
(g1030
S'\xe9\x02'
p2989
tp2990
Rp2991
S'n07730033'
p2992
sg1
(g1030
S'\xea\x02'
p2993
tp2994
Rp2995
S'n07734744'
p2996
sg1
(g1030
S'\xeb\x02'
p2997
tp2998
Rp2999
S'n04209239'
p3000
sg1
(g1030
S'\xec\x02'
p3001
tp3002
Rp3003
S'n03594734'
p3004
sg1
(g1030
S'\xed\x02'
p3005
tp3006
Rp3007
S'n02971356'
p3008
sg1
(g1030
S'\xee\x02'
p3009
tp3010
Rp3011
S'n03485794'
p3012
sg1
(g1030
S'\xef\x02'
p3013
tp3014
Rp3015
S'n04133789'
p3016
sg1
(g1030
S'\xf0\x02'
p3017
tp3018
Rp3019
S'n02747177'
p3020
sg1
(g1030
S'\xf1\x02'
p3021
tp3022
Rp3023
S'n04125021'
p3024
sg1
(g1030
S'\xf2\x02'
p3025
tp3026
Rp3027
S'n07579787'
p3028
sg1
(g1030
S'\xf3\x02'
p3029
tp3030
Rp3031
S'n03814906'
p3032
sg1
(g1030
S'\xf4\x02'
p3033
tp3034
Rp3035
S'n03134739'
p3036
sg1
(g1030
S'\xf5\x02'
p3037
tp3038
Rp3039
S'n03404251'
p3040
sg1
(g1030
S'\xf6\x02'
p3041
tp3042
Rp3043
S'n04423845'
p3044
sg1
(g1030
S'\xf7\x02'
p3045
tp3046
Rp3047
S'n03877472'
p3048
sg1
(g1030
S'\xf8\x02'
p3049
tp3050
Rp3051
S'n04120489'
p3052
sg1
(g1030
S'\xf9\x02'
p3053
tp3054
Rp3055
S'n03062245'
p3056
sg1
(g1030
S'\xfa\x02'
p3057
tp3058
Rp3059
S'n03014705'
p3060
sg1
(g1030
S'\xfb\x02'
p3061
tp3062
Rp3063
S'n03717622'
p3064
sg1
(g1030
S'\xfc\x02'
p3065
tp3066
Rp3067
S'n03777754'
p3068
sg1
(g1030
S'\xfd\x02'
p3069
tp3070
Rp3071
S'n04493381'
p3072
sg1
(g1030
S'\xfe\x02'
p3073
tp3074
Rp3075
S'n04476259'
p3076
sg1
(g1030
S'\xff\x02'
p3077
tp3078
Rp3079
S'n02777292'
p3080
sg1
(g1030
S'\x00\x03'
p3081
tp3082
Rp3083
S'n07693725'
p3084
sg1
(g1030
S'\x01\x03'
p3085
tp3086
Rp3087
S'n03998194'
p3088
sg1
(g1030
S'\x02\x03'
p3089
tp3090
Rp3091
S'n03617480'
p3092
sg1
(g1030
S'\x03\x03'
p3093
tp3094
Rp3095
S'n07590611'
p3096
sg1
(g1030
S'\x04\x03'
p3097
tp3098
Rp3099
S'n04579145'
p3100
sg1
(g1030
S'\x05\x03'
p3101
tp3102
Rp3103
S'n03623198'
p3104
sg1
(g1030
S'\x06\x03'
p3105
tp3106
Rp3107
S'n07248320'
p3108
sg1
(g1030
S'\x07\x03'
p3109
tp3110
Rp3111
S'n04277352'
p3112
sg1
(g1030
S'\x08\x03'
p3113
tp3114
Rp3115
S'n04229816'
p3116
sg1
(g1030
S'\t\x03'
p3117
tp3118
Rp3119
S'n02823428'
p3120
sg1
(g1030
S'\n\x03'
p3121
tp3122
Rp3123
S'n03127747'
p3124
sg1
(g1030
S'\x0b\x03'
p3125
tp3126
Rp3127
S'n02877765'
p3128
sg1
(g1030
S'\x0c\x03'
p3129
tp3130
Rp3131
S'n04435653'
p3132
sg1
(g1030
S'\r\x03'
p3133
tp3134
Rp3135
S'n03724870'
p3136
sg1
(g1030
S'\x0e\x03'
p3137
tp3138
Rp3139
S'n03710637'
p3140
sg1
(g1030
S'\x0f\x03'
p3141
tp3142
Rp3143
S'n03920288'
p3144
sg1
(g1030
S'\x10\x03'
p3145
tp3146
Rp3147
S'n03379051'
p3148
sg1
(g1030
S'\x11\x03'
p3149
tp3150
Rp3151
S'n02807133'
p3152
sg1
(g1030
S'\x12\x03'
p3153
tp3154
Rp3155
S'n04399382'
p3156
sg1
(g1030
S'\x13\x03'
p3157
tp3158
Rp3159
S'n03527444'
p3160
sg1
(g1030
S'\x14\x03'
p3161
tp3162
Rp3163
S'n03983396'
p3164
sg1
(g1030
S'\x15\x03'
p3165
tp3166
Rp3167
S'n03924679'
p3168
sg1
(g1030
S'\x16\x03'
p3169
tp3170
Rp3171
S'n04532106'
p3172
sg1
(g1030
S'\x17\x03'
p3173
tp3174
Rp3175
S'n06785654'
p3176
sg1
(g1030
S'\x18\x03'
p3177
tp3178
Rp3179
S'n03445777'
p3180
sg1
(g1030
S'\x19\x03'
p3181
tp3182
Rp3183
S'n07613480'
p3184
sg1
(g1030
S'\x1a\x03'
p3185
tp3186
Rp3187
S'n04350905'
p3188
sg1
(g1030
S'\x1b\x03'
p3189
tp3190
Rp3191
S'n04562935'
p3192
sg1
(g1030
S'\x1c\x03'
p3193
tp3194
Rp3195
S'n03325584'
p3196
sg1
(g1030
S'\x1d\x03'
p3197
tp3198
Rp3199
S'n03045698'
p3200
sg1
(g1030
S'\x1e\x03'
p3201
tp3202
Rp3203
S'n07892512'
p3204
sg1
(g1030
S'\x1f\x03'
p3205
tp3206
Rp3207
S'n03250847'
p3208
sg1
(g1030
S' \x03'
p3209
tp3210
Rp3211
S'n04192698'
p3212
sg1
(g1030
S'!\x03'
p3213
tp3214
Rp3215
S'n03026506'
p3216
sg1
(g1030
S'"\x03'
p3217
tp3218
Rp3219
S'n03534580'
p3220
sg1
(g1030
S'#\x03'
p3221
tp3222
Rp3223
S'n07565083'
p3224
sg1
(g1030
S'$\x03'
p3225
tp3226
Rp3227
S'n04296562'
p3228
sg1
(g1030
S'%\x03'
p3229
tp3230
Rp3231
S'n02869837'
p3232
sg1
(g1030
S'&\x03'
p3233
tp3234
Rp3235
S'n07871810'
p3236
sg1
(g1030
S"'\x03"
p3237
tp3238
Rp3239
S'n02799071'
p3240
sg1
(g1030
S'(\x03'
p3241
tp3242
Rp3243
S'n03314780'
p3244
sg1
(g1030
S')\x03'
p3245
tp3246
Rp3247
S'n04141327'
p3248
sg1
(g1030
S'*\x03'
p3249
tp3250
Rp3251
S'n04357314'
p3252
sg1
(g1030
S'+\x03'
p3253
tp3254
Rp3255
S'n02823750'
p3256
sg1
(g1030
S',\x03'
p3257
tp3258
Rp3259
S'n13052670'
p3260
sg1
(g1030
S'-\x03'
p3261
tp3262
Rp3263
S'n07583066'
p3264
sg1
(g1030
S'.\x03'
p3265
tp3266
Rp3267
S'n03637318'
p3268
sg1
(g1030
S'/\x03'
p3269
tp3270
Rp3271
S'n04599235'
p3272
sg1
(g1030
S'0\x03'
p3273
tp3274
Rp3275
S'n07802026'
p3276
sg1
(g1030
S'1\x03'
p3277
tp3278
Rp3279
S'n02883205'
p3280
sg1
(g1030
S'2\x03'
p3281
tp3282
Rp3283
S'n03709823'
p3284
sg1
(g1030
S'3\x03'
p3285
tp3286
Rp3287
S'n04560804'
p3288
sg1
(g1030
S'4\x03'
p3289
tp3290
Rp3291
S'n02909870'
p3292
sg1
(g1030
S'5\x03'
p3293
tp3294
Rp3295
S'n03207743'
p3296
sg1
(g1030
S'6\x03'
p3297
tp3298
Rp3299
S'n04263257'
p3300
sg1
(g1030
S'7\x03'
p3301
tp3302
Rp3303
S'n07932039'
p3304
sg1
(g1030
S'8\x03'
p3305
tp3306
Rp3307
S'n03786901'
p3308
sg1
(g1030
S'9\x03'
p3309
tp3310
Rp3311
S'n04479046'
p3312
sg1
(g1030
S':\x03'
p3313
tp3314
Rp3315
S'n03873416'
p3316
sg1
(g1030
S';\x03'
p3317
tp3318
Rp3319
S'n02999410'
p3320
sg1
(g1030
S'<\x03'
p3321
tp3322
Rp3323
S'n04367480'
p3324
sg1
(g1030
S'=\x03'
p3325
tp3326
Rp3327
S'n03775546'
p3328
sg1
(g1030
S'>\x03'
p3329
tp3330
Rp3331
S'n07875152'
p3332
sg1
(g1030
S'?\x03'
p3333
tp3334
Rp3335
S'n04591713'
p3336
sg1
(g1030
S'@\x03'
p3337
tp3338
Rp3339
S'n04201297'
p3340
sg1
(g1030
S'A\x03'
p3341
tp3342
Rp3343
S'n02916936'
p3344
sg1
(g1030
S'B\x03'
p3345
tp3346
Rp3347
S'n03240683'
p3348
sg1
(g1030
S'C\x03'
p3349
tp3350
Rp3351
S'n02840245'
p3352
sg1
(g1030
S'D\x03'
p3353
tp3354
Rp3355
S'n02963159'
p3356
sg1
(g1030
S'E\x03'
p3357
tp3358
Rp3359
S'n04370456'
p3360
sg1
(g1030
S'F\x03'
p3361
tp3362
Rp3363
S'n03991062'
p3364
sg1
(g1030
S'G\x03'
p3365
tp3366
Rp3367
S'n02843684'
p3368
sg1
(g1030
S'H\x03'
p3369
tp3370
Rp3371
S'n03482405'
p3372
sg1
(g1030
S'I\x03'
p3373
tp3374
Rp3375
S'n03942813'
p3376
sg1
(g1030
S'J\x03'
p3377
tp3378
Rp3379
S'n03908618'
p3380
sg1
(g1030
S'K\x03'
p3381
tp3382
Rp3383
S'n03902125'
p3384
sg1
(g1030
S'L\x03'
p3385
tp3386
Rp3387
S'n07584110'
p3388
sg1
(g1030
S'M\x03'
p3389
tp3390
Rp3391
S'n02730930'
p3392
sg1
(g1030
S'N\x03'
p3393
tp3394
Rp3395
S'n04023962'
p3396
sg1
(g1030
S'O\x03'
p3397
tp3398
Rp3399
S'n02769748'
p3400
sg1
(g1030
S'P\x03'
p3401
tp3402
Rp3403
S'n10148035'
p3404
sg1
(g1030
S'Q\x03'
p3405
tp3406
Rp3407
S'n02817516'
p3408
sg1
(g1030
S'R\x03'
p3409
tp3410
Rp3411
S'n03908714'
p3412
sg1
(g1030
S'S\x03'
p3413
tp3414
Rp3415
S'n02906734'
p3416
sg1
(g1030
S'T\x03'
p3417
tp3418
Rp3419
S'n03788365'
p3420
sg1
(g1030
S'U\x03'
p3421
tp3422
Rp3423
S'n02667093'
p3424
sg1
(g1030
S'V\x03'
p3425
tp3426
Rp3427
S'n03787032'
p3428
sg1
(g1030
S'W\x03'
p3429
tp3430
Rp3431
S'n03980874'
p3432
sg1
(g1030
S'X\x03'
p3433
tp3434
Rp3435
S'n03141823'
p3436
sg1
(g1030
S'Y\x03'
p3437
tp3438
Rp3439
S'n03976467'
p3440
sg1
(g1030
S'Z\x03'
p3441
tp3442
Rp3443
S'n04264628'
p3444
sg1
(g1030
S'[\x03'
p3445
tp3446
Rp3447
S'n07930864'
p3448
sg1
(g1030
S'\\\x03'
p3449
tp3450
Rp3451
S'n04039381'
p3452
sg1
(g1030
S']\x03'
p3453
tp3454
Rp3455
S'n06874185'
p3456
sg1
(g1030
S'^\x03'
p3457
tp3458
Rp3459
S'n04033901'
p3460
sg1
(g1030
S'_\x03'
p3461
tp3462
Rp3463
S'n04041544'
p3464
sg1
(g1030
S'`\x03'
p3465
tp3466
Rp3467
S'n07860988'
p3468
sg1
(g1030
S'a\x03'
p3469
tp3470
Rp3471
S'n03146219'
p3472
sg1
(g1030
S'b\x03'
p3473
tp3474
Rp3475
S'n03763968'
p3476
sg1
(g1030
S'c\x03'
p3477
tp3478
Rp3479
S'n03676483'
p3480
sg1
(g1030
S'd\x03'
p3481
tp3482
Rp3483
S'n04209133'
p3484
sg1
(g1030
S'e\x03'
p3485
tp3486
Rp3487
S'n03782006'
p3488
sg1
(g1030
S'f\x03'
p3489
tp3490
Rp3491
S'n03857828'
p3492
sg1
(g1030
S'g\x03'
p3493
tp3494
Rp3495
S'n03775071'
p3496
sg1
(g1030
S'h\x03'
p3497
tp3498
Rp3499
S'n02892767'
p3500
sg1
(g1030
S'i\x03'
p3501
tp3502
Rp3503
S'n07684084'
p3504
sg1
(g1030
S'j\x03'
p3505
tp3506
Rp3507
S'n04522168'
p3508
sg1
(g1030
S'k\x03'
p3509
tp3510
Rp3511
S'n03764736'
p3512
sg1
(g1030
S'l\x03'
p3513
tp3514
Rp3515
S'n04118538'
p3516
sg1
(g1030
S'm\x03'
p3517
tp3518
Rp3519
S'n03887697'
p3520
sg1
(g1030
S'n\x03'
p3521
tp3522
Rp3523
S'n13044778'
p3524
sg1
(g1030
S'o\x03'
p3525
tp3526
Rp3527
S'n03291819'
p3528
sg1
(g1030
S'p\x03'
p3529
tp3530
Rp3531
S'n03770439'
p3532
sg1
(g1030
S'q\x03'
p3533
tp3534
Rp3535
S'n03124170'
p3536
sg1
(g1030
S'r\x03'
p3537
tp3538
Rp3539
S'n04487081'
p3540
sg1
(g1030
S's\x03'
p3541
tp3542
Rp3543
S'n03916031'
p3544
sg1
(g1030
S't\x03'
p3545
tp3546
Rp3547
S'n02808440'
p3548
sg1
(g1030
S'u\x03'
p3549
tp3550
Rp3551
S'n07697537'
p3552
sg1
(g1030
S'v\x03'
p3553
tp3554
Rp3555
S'n12985857'
p3556
sg1
(g1030
S'w\x03'
p3557
tp3558
Rp3559
S'n02917067'
p3560
sg1
(g1030
S'x\x03'
p3561
tp3562
Rp3563
S'n03938244'
p3564
sg1
(g1030
S'y\x03'
p3565
tp3566
Rp3567
S'n15075141'
p3568
sg1
(g1030
S'z\x03'
p3569
tp3570
Rp3571
S'n02978881'
p3572
sg1
(g1030
S'{\x03'
p3573
tp3574
Rp3575
S'n02966687'
p3576
sg1
(g1030
S'|\x03'
p3577
tp3578
Rp3579
S'n03633091'
p3580
sg1
(g1030
S'}\x03'
p3581
tp3582
Rp3583
S'n13040303'
p3584
sg1
(g1030
S'~\x03'
p3585
tp3586
Rp3587
S'n03690938'
p3588
sg1
(g1030
S'\x7f\x03'
p3589
tp3590
Rp3591
S'n03476991'
p3592
sg1
(g1030
S'\x80\x03'
p3593
tp3594
Rp3595
S'n02669723'
p3596
sg1
(g1030
S'\x81\x03'
p3597
tp3598
Rp3599
S'n03220513'
p3600
sg1
(g1030
S'\x82\x03'
p3601
tp3602
Rp3603
S'n03127925'
p3604
sg1
(g1030
S'\x83\x03'
p3605
tp3606
Rp3607
S'n04584207'
p3608
sg1
(g1030
S'\x84\x03'
p3609
tp3610
Rp3611
S'n07880968'
p3612
sg1
(g1030
S'\x85\x03'
p3613
tp3614
Rp3615
S'n03937543'
p3616
sg1
(g1030
S'\x86\x03'
p3617
tp3618
Rp3619
S'n03000247'
p3620
sg1
(g1030
S'\x87\x03'
p3621
tp3622
Rp3623
S'n04418357'
p3624
sg1
(g1030
S'\x88\x03'
p3625
tp3626
Rp3627
S'n04590129'
p3628
sg1
(g1030
S'\x89\x03'
p3629
tp3630
Rp3631
S'n02795169'
p3632
sg1
(g1030
S'\x8a\x03'
p3633
tp3634
Rp3635
S'n04553703'
p3636
sg1
(g1030
S'\x8b\x03'
p3637
tp3638
Rp3639
S'n02783161'
p3640
sg1
(g1030
S'\x8c\x03'
p3641
tp3642
Rp3643
S'n02802426'
p3644
sg1
(g1030
S'\x8d\x03'
p3645
tp3646
Rp3647
S'n02808304'
p3648
sg1
(g1030
S'\x8e\x03'
p3649
tp3650
Rp3651
S'n03124043'
p3652
sg1
(g1030
S'\x8f\x03'
p3653
tp3654
Rp3655
S'n03450230'
p3656
sg1
(g1030
S'\x90\x03'
p3657
tp3658
Rp3659
S'n04589890'
p3660
sg1
(g1030
S'\x91\x03'
p3661
tp3662
Rp3663
S'n12998815'
p3664
sg1
(g1030
S'\x92\x03'
p3665
tp3666
Rp3667
S'n02992529'
p3668
sg1
(g1030
S'\x93\x03'
p3669
tp3670
Rp3671
S'n03825788'
p3672
sg1
(g1030
S'\x94\x03'
p3673
tp3674
Rp3675
S'n02790996'
p3676
sg1
(g1030
S'\x95\x03'
p3677
tp3678
Rp3679
S'n03710193'
p3680
sg1
(g1030
S'\x96\x03'
p3681
tp3682
Rp3683
S'n03630383'
p3684
sg1
(g1030
S'\x97\x03'
p3685
tp3686
Rp3687
S'n03347037'
p3688
sg1
(g1030
S'\x98\x03'
p3689
tp3690
Rp3691
S'n03769881'
p3692
sg1
(g1030
S'\x99\x03'
p3693
tp3694
Rp3695
S'n03871628'
p3696
sg1
(g1030
S'\x9a\x03'
p3697
tp3698
Rp3699
S'n03733281'
p3700
sg1
(g1030
S'\x9b\x03'
p3701
tp3702
Rp3703
S'n03976657'
p3704
sg1
(g1030
S'\x9c\x03'
p3705
tp3706
Rp3707
S'n03535780'
p3708
sg1
(g1030
S'\x9d\x03'
p3709
tp3710
Rp3711
S'n04259630'
p3712
sg1
(g1030
S'\x9e\x03'
p3713
tp3714
Rp3715
S'n03929855'
p3716
sg1
(g1030
S'\x9f\x03'
p3717
tp3718
Rp3719
S'n04049303'
p3720
sg1
(g1030
S'\xa0\x03'
p3721
tp3722
Rp3723
S'n04548362'
p3724
sg1
(g1030
S'\xa1\x03'
p3725
tp3726
Rp3727
S'n02979186'
p3728
sg1
(g1030
S'\xa2\x03'
p3729
tp3730
Rp3731
S'n06596364'
p3732
sg1
(g1030
S'\xa3\x03'
p3733
tp3734
Rp3735
S'n03935335'
p3736
sg1
(g1030
S'\xa4\x03'
p3737
tp3738
Rp3739
S'n06794110'
p3740
sg1
(g1030
S'\xa5\x03'
p3741
tp3742
Rp3743
S'n02825657'
p3744
sg1
(g1030
S'\xa6\x03'
p3745
tp3746
Rp3747
S'n03388183'
p3748
sg1
(g1030
S'\xa7\x03'
p3749
tp3750
Rp3751
S'n04591157'
p3752
sg1
(g1030
S'\xa8\x03'
p3753
tp3754
Rp3755
S'n04540053'
p3756
sg1
(g1030
S'\xa9\x03'
p3757
tp3758
Rp3759
S'n03866082'
p3760
sg1
(g1030
S'\xaa\x03'
p3761
tp3762
Rp3763
S'n04136333'
p3764
sg1
(g1030
S'\xab\x03'
p3765
tp3766
Rp3767
S'n04026417'
p3768
sg1
(g1030
S'\xac\x03'
p3769
tp3770
Rp3771
S'n02865351'
p3772
sg1
(g1030
S'\xad\x03'
p3773
tp3774
Rp3775
S'n02834397'
p3776
sg1
(g1030
S'\xae\x03'
p3777
tp3778
Rp3779
S'n03888257'
p3780
sg1
(g1030
S'\xaf\x03'
p3781
tp3782
Rp3783
S'n04235860'
p3784
sg1
(g1030
S'\xb0\x03'
p3785
tp3786
Rp3787
S'n04404412'
p3788
sg1
(g1030
S'\xb1\x03'
p3789
tp3790
Rp3791
S'n04371430'
p3792
sg1
(g1030
S'\xb2\x03'
p3793
tp3794
Rp3795
S'n03733805'
p3796
sg1
(g1030
S'\xb3\x03'
p3797
tp3798
Rp3799
S'n07920052'
p3800
sg1
(g1030
S'\xb4\x03'
p3801
tp3802
Rp3803
S'n07873807'
p3804
sg1
(g1030
S'\xb5\x03'
p3805
tp3806
Rp3807
S'n02895154'
p3808
sg1
(g1030
S'\xb6\x03'
p3809
tp3810
Rp3811
S'n04204238'
p3812
sg1
(g1030
S'\xb7\x03'
p3813
tp3814
Rp3815
S'n04597913'
p3816
sg1
(g1030
S'\xb8\x03'
p3817
tp3818
Rp3819
S'n04131690'
p3820
sg1
(g1030
S'\xb9\x03'
p3821
tp3822
Rp3823
S'n07836838'
p3824
sg1
(g1030
S'\xba\x03'
p3825
tp3826
Rp3827
S'n09835506'
p3828
sg1
(g1030
S'\xbb\x03'
p3829
tp3830
Rp3831
S'n03443371'
p3832
sg1
(g1030
S'\xbc\x03'
p3833
tp3834
Rp3835
S'n13037406'
p3836
sg1
(g1030
S'\xbd\x03'
p3837
tp3838
Rp3839
S'n04336792'
p3840
sg1
(g1030
S'\xbe\x03'
p3841
tp3842
Rp3843
S'n04557648'
p3844
sg1
(g1030
S'\xbf\x03'
p3845
tp3846
Rp3847
S'n03187595'
p3848
sg1
(g1030
S'\xc0\x03'
p3849
tp3850
Rp3851
S'n04254120'
p3852
sg1
(g1030
S'\xc1\x03'
p3853
tp3854
Rp3855
S'n03595614'
p3856
sg1
(g1030
S'\xc2\x03'
p3857
tp3858
Rp3859
S'n04146614'
p3860
sg1
(g1030
S'\xc3\x03'
p3861
tp3862
Rp3863
S'n03598930'
p3864
sg1
(g1030
S'\xc4\x03'
p3865
tp3866
Rp3867
S'n03958227'
p3868
sg1
(g1030
S'\xc5\x03'
p3869
tp3870
Rp3871
S'n04069434'
p3872
sg1
(g1030
S'\xc6\x03'
p3873
tp3874
Rp3875
S'n03188531'
p3876
sg1
(g1030
S'\xc7\x03'
p3877
tp3878
Rp3879
S'n02786058'
p3880
sg1
(g1030
S'\xc8\x03'
p3881
tp3882
Rp3883
S'n07615774'
p3884
sg1
(g1030
S'\xc9\x03'
p3885
tp3886
Rp3887
S'n04525038'
p3888
sg1
(g1030
S'\xca\x03'
p3889
tp3890
Rp3891
S'n04409515'
p3892
sg1
(g1030
S'\xcb\x03'
p3893
tp3894
Rp3895
S'n03424325'
p3896
sg1
(g1030
S'\xcc\x03'
p3897
tp3898
Rp3899
S'n03223299'
p3900
sg1
(g1030
S'\xcd\x03'
p3901
tp3902
Rp3903
S'n03680355'
p3904
sg1
(g1030
S'\xce\x03'
p3905
tp3906
Rp3907
S'n07614500'
p3908
sg1
(g1030
S'\xcf\x03'
p3909
tp3910
Rp3911
S'n07695742'
p3912
sg1
(g1030
S'\xd0\x03'
p3913
tp3914
Rp3915
S'n04033995'
p3916
sg1
(g1030
S'\xd1\x03'
p3917
tp3918
Rp3919
S'n03710721'
p3920
sg1
(g1030
S'\xd2\x03'
p3921
tp3922
Rp3923
S'n04392985'
p3924
sg1
(g1030
S'\xd3\x03'
p3925
tp3926
Rp3927
S'n03047690'
p3928
sg1
(g1030
S'\xd4\x03'
p3929
tp3930
Rp3931
S'n03584254'
p3932
sg1
(g1030
S'\xd5\x03'
p3933
tp3934
Rp3935
S'n13054560'
p3936
sg1
(g1030
S'\xd6\x03'
p3937
tp3938
Rp3939
S'n10565667'
p3940
sg1
(g1030
S'\xd7\x03'
p3941
tp3942
Rp3943
S'n03950228'
p3944
sg1
(g1030
S'\xd8\x03'
p3945
tp3946
Rp3947
S'n03729826'
p3948
sg1
(g1030
S'\xd9\x03'
p3949
tp3950
Rp3951
S'n02837789'
p3952
sg1
(g1030
S'\xda\x03'
p3953
tp3954
Rp3955
S'n04254777'
p3956
sg1
(g1030
S'\xdb\x03'
p3957
tp3958
Rp3959
S'n02988304'
p3960
sg1
(g1030
S'\xdc\x03'
p3961
tp3962
Rp3963
S'n03657121'
p3964
sg1
(g1030
S'\xdd\x03'
p3965
tp3966
Rp3967
S'n04417672'
p3968
sg1
(g1030
S'\xde\x03'
p3969
tp3970
Rp3971
S'n04523525'
p3972
sg1
(g1030
S'\xdf\x03'
p3973
tp3974
Rp3975
S'n02815834'
p3976
sg1
(g1030
S'\xe0\x03'
p3977
tp3978
Rp3979
S'n09229709'
p3980
sg1
(g1030
S'\xe1\x03'
p3981
tp3982
Rp3983
S'n07697313'
p3984
sg1
(g1030
S'\xe2\x03'
p3985
tp3986
Rp3987
S'n03888605'
p3988
sg1
(g1030
S'\xe3\x03'
p3989
tp3990
Rp3991
S'n03355925'
p3992
sg1
(g1030
S'\xe4\x03'
p3993
tp3994
Rp3995
S'n03063599'
p3996
sg1
(g1030
S'\xe5\x03'
p3997
tp3998
Rp3999
S'n04116512'
p4000
sg1
(g1030
S'\xe6\x03'
p4001
tp4002
Rp4003
S'n04325704'
p4004
sg1
(g1030
S'\xe7\x03'
p4005
tp4006
Rp4007
S'n07831146'
p4008
sg1
(g1030
S'\xe8\x03'
p4009
tp4010
Rp4011
S'n03255030'
p4012
sg1
(g1030
S'\xe9\x03'
p4013
tp4014
Rp4015
S'n00001740'
p4016
sg1
(g1030
S'\xea\x03'
p4017
tp4018
Rp4019
S'n00001930'
p4020
sg1
(g1030
S'\xeb\x03'
p4021
tp4022
Rp4023
S'n00020827'
p4024
sg1
(g1030
S'\xec\x03'
p4025
tp4026
Rp4027
S'n00020090'
p4028
sg1
(g1030
S'\xed\x03'
p4029
tp4030
Rp4031
S'n00021265'
p4032
sg1
(g1030
S'\xee\x03'
p4033
tp4034
Rp4035
S'n07566340'
p4036
sg1
(g1030
S'\xef\x03'
p4037
tp4038
Rp4039
S'n07566863'
p4040
sg1
(g1030
S'\xf0\x03'
p4041
tp4042
Rp4043
S'n07710616'
p4044
sg1
(g1030
S'\xf1\x03'
p4045
tp4046
Rp4047
S'n07679356'
p4048
sg1
(g1030
S'\xf2\x03'
p4049
tp4050
Rp4051
S'n07683786'
p4052
sg1
(g1030
S'\xf3\x03'
p4053
tp4054
Rp4055
S'n07681926'
p4056
sg1
(g1030
S'\xf4\x03'
p4057
tp4058
Rp4059
S'n07680932'
p4060
sg1
(g1030
S'\xf5\x03'
p4061
tp4062
Rp4063
S'n07809096'
p4064
sg1
(g1030
S'\xf6\x03'
p4065
tp4066
Rp4067
S'n07809368'
p4068
sg1
(g1030
S'\xf7\x03'
p4069
tp4070
Rp4071
S'n07810907'
p4072
sg1
(g1030
S'\xf8\x03'
p4073
tp4074
Rp4075
S'n07582609'
p4076
sg1
(g1030
S'\xf9\x03'
p4077
tp4078
Rp4079
S'n07829412'
p4080
sg1
(g1030
S'\xfa\x03'
p4081
tp4082
Rp4083
S'n07838233'
p4084
sg1
(g1030
S'\xfb\x03'
p4085
tp4086
Rp4087
S'n07882497'
p4088
sg1
(g1030
S'\xfc\x03'
p4089
tp4090
Rp4091
S'n07560652'
p4092
sg1
(g1030
S'\xfd\x03'
p4093
tp4094
Rp4095
S'n07570720'
p4096
sg1
(g1030
S'\xfe\x03'
p4097
tp4098
Rp4099
S'n07557434'
p4100
sg1
(g1030
S'\xff\x03'
p4101
tp4102
Rp4103
S'n07588947'
p4104
sg1
(g1030
S'\x00\x04'
p4105
tp4106
Rp4107
S'n07583197'
p4108
sg1
(g1030
S'\x01\x04'
p4109
tp4110
Rp4111
S'n07712382'
p4112
sg1
(g1030
S'\x02\x04'
p4113
tp4114
Rp4115
S'n07695965'
p4116
sg1
(g1030
S'\x03\x04'
p4117
tp4118
Rp4119
S'n07697100'
p4120
sg1
(g1030
S'\x04\x04'
p4121
tp4122
Rp4123
S'n07556970'
p4124
sg1
(g1030
S'\x05\x04'
p4125
tp4126
Rp4127
S'n07579575'
p4128
sg1
(g1030
S'\x06\x04'
p4129
tp4130
Rp4131
S'n07609840'
p4132
sg1
(g1030
S'\x07\x04'
p4133
tp4134
Rp4135
S'n07611358'
p4136
sg1
(g1030
S'\x08\x04'
p4137
tp4138
Rp4139
S'n07612996'
p4140
sg1
(g1030
S'\t\x04'
p4141
tp4142
Rp4143
S'n07800091'
p4144
sg1
(g1030
S'\n\x04'
p4145
tp4146
Rp4147
S'n07800740'
p4148
sg1
(g1030
S'\x0b\x04'
p4149
tp4150
Rp4151
S'n07881800'
p4152
sg1
(g1030
S'\x0c\x04'
p4153
tp4154
Rp4155
S'n07929519'
p4156
sg1
(g1030
S'\r\x04'
p4157
tp4158
Rp4159
S'n07884567'
p4160
sg1
(g1030
S'\x0e\x04'
p4161
tp4162
Rp4163
S'n07891726'
p4164
sg1
(g1030
S'\x0f\x04'
p4165
tp4166
Rp4167
S'n07911371'
p4168
sg1
(g1030
S'\x10\x04'
p4169
tp4170
Rp4171
S'n07930554'
p4172
sg1
(g1030
S'\x11\x04'
p4173
tp4174
Rp4175
S'n14778436'
p4176
sg1
(g1030
S'\x12\x04'
p4177
tp4178
Rp4179
S'n03247620'
p4180
sg1
(g1030
S'\x13\x04'
p4181
tp4182
Rp4183
S'n03248958'
p4184
sg1
(g1030
S'\x14\x04'
p4185
tp4186
Rp4187
S'n03740161'
p4188
sg1
(g1030
S'\x15\x04'
p4189
tp4190
Rp4191
S'n03994008'
p4192
sg1
(g1030
S'\x16\x04'
p4193
tp4194
Rp4195
S'n00019613'
p4196
sg1
(g1030
S'\x17\x04'
p4197
tp4198
Rp4199
S'n14580897'
p4200
sg1
(g1030
S'\x18\x04'
p4201
tp4202
Rp4203
S'n14974264'
p4204
sg1
(g1030
S'\x19\x04'
p4205
tp4206
Rp4207
S'n15074962'
p4208
sg1
(g1030
S'\x1a\x04'
p4209
tp4210
Rp4211
S'n14939900'
p4212
sg1
(g1030
S'\x1b\x04'
p4213
tp4214
Rp4215
S'n14940386'
p4216
sg1
(g1030
S'\x1c\x04'
p4217
tp4218
Rp4219
S'n15046900'
p4220
sg1
(g1030
S'\x1d\x04'
p4221
tp4222
Rp4223
S'n07555863'
p4224
sg1
(g1030
S'\x1e\x04'
p4225
tp4226
Rp4227
S'n07622061'
p4228
sg1
(g1030
S'\x1f\x04'
p4229
tp4230
Rp4231
S'n07705711'
p4232
sg1
(g1030
S' \x04'
p4233
tp4234
Rp4235
S'n07705931'
p4236
sg1
(g1030
S'!\x04'
p4237
tp4238
Rp4239
S'n07739125'
p4240
sg1
(g1030
S'"\x04'
p4241
tp4242
Rp4243
S'n07739506'
p4244
sg1
(g1030
S'#\x04'
p4245
tp4246
Rp4247
S'n07742704'
p4248
sg1
(g1030
S'$\x04'
p4249
tp4250
Rp4251
S'n07747055'
p4252
sg1
(g1030
S'%\x04'
p4253
tp4254
Rp4255
S'n07707451'
p4256
sg1
(g1030
S'&\x04'
p4257
tp4258
Rp4259
S'n07710007'
p4260
sg1
(g1030
S"'\x04"
p4261
tp4262
Rp4263
S'n07720442'
p4264
sg1
(g1030
S'(\x04'
p4265
tp4266
Rp4267
S'n07720615'
p4268
sg1
(g1030
S')\x04'
p4269
tp4270
Rp4271
S'n07710283'
p4272
sg1
(g1030
S'*\x04'
p4273
tp4274
Rp4275
S'n07713395'
p4276
sg1
(g1030
S'+\x04'
p4277
tp4278
Rp4279
S'n07713895'
p4280
sg1
(g1030
S',\x04'
p4281
tp4282
Rp4283
S'n07715561'
p4284
sg1
(g1030
S'-\x04'
p4285
tp4286
Rp4287
S'n07715721'
p4288
sg1
(g1030
S'.\x04'
p4289
tp4290
Rp4291
S'n07717070'
p4292
sg1
(g1030
S'/\x04'
p4293
tp4294
Rp4295
S'n00007347'
p4296
sg1
(g1030
S'0\x04'
p4297
tp4298
Rp4299
S'n00007846'
p4300
sg1
(g1030
S'1\x04'
p4301
tp4302
Rp4303
S'n09613191'
p4304
sg1
(g1030
S'2\x04'
p4305
tp4306
Rp4307
S'n10439851'
p4308
sg1
(g1030
S'3\x04'
p4309
tp4310
Rp4311
S'n09820263'
p4312
sg1
(g1030
S'4\x04'
p4313
tp4314
Rp4315
S'n10072708'
p4316
sg1
(g1030
S'5\x04'
p4317
tp4318
Rp4319
S'n10019552'
p4320
sg1
(g1030
S'6\x04'
p4321
tp4322
Rp4323
S'n09626238'
p4324
sg1
(g1030
S'7\x04'
p4325
tp4326
Rp4327
S'n09816771'
p4328
sg1
(g1030
S'8\x04'
p4329
tp4330
Rp4331
S'n10401829'
p4332
sg1
(g1030
S'9\x04'
p4333
tp4334
Rp4335
S'n00002684'
p4336
sg1
(g1030
S':\x04'
p4337
tp4338
Rp4339
S'n09287968'
p4340
sg1
(g1030
S';\x04'
p4341
tp4342
Rp4343
S'n09366017'
p4344
sg1
(g1030
S'<\x04'
p4345
tp4346
Rp4347
S'n09366317'
p4348
sg1
(g1030
S'=\x04'
p4349
tp4350
Rp4351
S'n09359803'
p4352
sg1
(g1030
S'>\x04'
p4353
tp4354
Rp4355
S'n09409512'
p4356
sg1
(g1030
S'?\x04'
p4357
tp4358
Rp4359
S'n09214060'
p4360
sg1
(g1030
S'@\x04'
p4361
tp4362
Rp4363
S'n09406793'
p4364
sg1
(g1030
S'A\x04'
p4365
tp4366
Rp4367
S'n09433442'
p4368
sg1
(g1030
S'B\x04'
p4369
tp4370
Rp4371
S'n09443453'
p4372
sg1
(g1030
S'C\x04'
p4373
tp4374
Rp4375
S'n00027167'
p4376
sg1
(g1030
S'D\x04'
p4377
tp4378
Rp4379
S'n08620061'
p4380
sg1
(g1030
S'E\x04'
p4381
tp4382
Rp4383
S'n08578706'
p4384
sg1
(g1030
S'F\x04'
p4385
tp4386
Rp4387
S'n04602044'
p4388
sg1
(g1030
S'G\x04'
p4389
tp4390
Rp4391
S'n00003553'
p4392
sg1
(g1030
S'H\x04'
p4393
tp4394
Rp4395
S'n00019128'
p4396
sg1
(g1030
S'I\x04'
p4397
tp4398
Rp4399
S'n09349797'
p4400
sg1
(g1030
S'J\x04'
p4401
tp4402
Rp4403
S'n09214581'
p4404
sg1
(g1030
S'K\x04'
p4405
tp4406
Rp4407
S'n13086908'
p4408
sg1
(g1030
S'L\x04'
p4409
tp4410
Rp4411
S'n13087625'
p4412
sg1
(g1030
S'M\x04'
p4413
tp4414
Rp4415
S'n11675842'
p4416
sg1
(g1030
S'N\x04'
p4417
tp4418
Rp4419
S'n13134947'
p4420
sg1
(g1030
S'O\x04'
p4421
tp4422
Rp4423
S'n13135832'
p4424
sg1
(g1030
S'P\x04'
p4425
tp4426
Rp4427
S'n11689483'
p4428
sg1
(g1030
S'Q\x04'
p4429
tp4430
Rp4431
S'n12156819'
p4432
sg1
(g1030
S'R\x04'
p4433
tp4434
Rp4435
S'n12157056'
p4436
sg1
(g1030
S'S\x04'
p4437
tp4438
Rp4439
S'n13138842'
p4440
sg1
(g1030
S'T\x04'
p4441
tp4442
Rp4443
S'n00004258'
p4444
sg1
(g1030
S'U\x04'
p4445
tp4446
Rp4447
S'n00004475'
p4448
sg1
(g1030
S'V\x04'
p4449
tp4450
Rp4451
S'n00017222'
p4452
sg1
(g1030
S'W\x04'
p4453
tp4454
Rp4455
S'n13083586'
p4456
sg1
(g1030
S'X\x04'
p4457
tp4458
Rp4459
S'n11552386'
p4460
sg1
(g1030
S'Y\x04'
p4461
tp4462
Rp4463
S'n11665372'
p4464
sg1
(g1030
S'Z\x04'
p4465
tp4466
Rp4467
S'n11669921'
p4468
sg1
(g1030
S'[\x04'
p4469
tp4470
Rp4471
S'n12041446'
p4472
sg1
(g1030
S'\\\x04'
p4473
tp4474
Rp4475
S'n12056217'
p4476
sg1
(g1030
S']\x04'
p4477
tp4478
Rp4479
S'n12992868'
p4480
sg1
(g1030
S'^\x04'
p4481
tp4482
Rp4483
S'n12997654'
p4484
sg1
(g1030
S'_\x04'
p4485
tp4486
Rp4487
S'n00015388'
p4488
sg1
(g1030
S'`\x04'
p4489
tp4490
Rp4491
S'n01905661'
p4492
sg1
(g1030
S'a\x04'
p4493
tp4494
Rp4495
S'n01767661'
p4496
sg1
(g1030
S'b\x04'
p4497
tp4498
Rp4499
S'n01769347'
p4500
sg1
(g1030
S'c\x04'
p4501
tp4502
Rp4503
S'n01772222'
p4504
sg1
(g1030
S'd\x04'
p4505
tp4506
Rp4507
S'n01776192'
p4508
sg1
(g1030
S'e\x04'
p4509
tp4510
Rp4511
S'n01974773'
p4512
sg1
(g1030
S'f\x04'
p4513
tp4514
Rp4515
S'n01975687'
p4516
sg1
(g1030
S'g\x04'
p4517
tp4518
Rp4519
S'n01976146'
p4520
sg1
(g1030
S'h\x04'
p4521
tp4522
Rp4523
S'n01976957'
p4524
sg1
(g1030
S'i\x04'
p4525
tp4526
Rp4527
S'n01982650'
p4528
sg1
(g1030
S'j\x04'
p4529
tp4530
Rp4531
S'n01983048'
p4532
sg1
(g1030
S'k\x04'
p4533
tp4534
Rp4535
S'n02159955'
p4536
sg1
(g1030
S'l\x04'
p4537
tp4538
Rp4539
S'n02164464'
p4540
sg1
(g1030
S'm\x04'
p4541
tp4542
Rp4543
S'n02171453'
p4544
sg1
(g1030
S'n\x04'
p4545
tp4546
Rp4547
S'n02171869'
p4548
sg1
(g1030
S'o\x04'
p4549
tp4550
Rp4551
S'n02188699'
p4552
sg1
(g1030
S'p\x04'
p4553
tp4554
Rp4555
S'n02206270'
p4556
sg1
(g1030
S'q\x04'
p4557
tp4558
Rp4559
S'n02226183'
p4560
sg1
(g1030
S'r\x04'
p4561
tp4562
Rp4563
S'n02231052'
p4564
sg1
(g1030
S's\x04'
p4565
tp4566
Rp4567
S'n02232951'
p4568
sg1
(g1030
S't\x04'
p4569
tp4570
Rp4571
S'n02246011'
p4572
sg1
(g1030
S'u\x04'
p4573
tp4574
Rp4575
S'n02263378'
p4576
sg1
(g1030
S'v\x04'
p4577
tp4578
Rp4579
S'n02268148'
p4580
sg1
(g1030
S'w\x04'
p4581
tp4582
Rp4583
S'n02274024'
p4584
sg1
(g1030
S'x\x04'
p4585
tp4586
Rp4587
S'n02274259'
p4588
sg1
(g1030
S'y\x04'
p4589
tp4590
Rp4591
S'n02274822'
p4592
sg1
(g1030
S'z\x04'
p4593
tp4594
Rp4595
S'n02279637'
p4596
sg1
(g1030
S'{\x04'
p4597
tp4598
Rp4599
S'n02280458'
p4600
sg1
(g1030
S'|\x04'
p4601
tp4602
Rp4603
S'n01909422'
p4604
sg1
(g1030
S'}\x04'
p4605
tp4606
Rp4607
S'n01914163'
p4608
sg1
(g1030
S'~\x04'
p4609
tp4610
Rp4611
S'n01915811'
p4612
sg1
(g1030
S'\x7f\x04'
p4613
tp4614
Rp4615
S'n01916925'
p4616
sg1
(g1030
S'\x80\x04'
p4617
tp4618
Rp4619
S'n01922303'
p4620
sg1
(g1030
S'\x81\x04'
p4621
tp4622
Rp4623
S'n01940736'
p4624
sg1
(g1030
S'\x82\x04'
p4625
tp4626
Rp4627
S'n01942177'
p4628
sg1
(g1030
S'\x83\x04'
p4629
tp4630
Rp4631
S'n01968315'
p4632
sg1
(g1030
S'\x84\x04'
p4633
tp4634
Rp4635
S'n02316707'
p4636
sg1
(g1030
S'\x85\x04'
p4637
tp4638
Rp4639
S'n01317541'
p4640
sg1
(g1030
S'\x86\x04'
p4641
tp4642
Rp4643
S'n02121808'
p4644
sg1
(g1030
S'\x87\x04'
p4645
tp4646
Rp4647
S'n02084071'
p4648
sg1
(g1030
S'\x88\x04'
p4649
tp4650
Rp4651
S'n02087122'
p4652
sg1
(g1030
S'\x89\x04'
p4653
tp4654
Rp4655
S'n02098550'
p4656
sg1
(g1030
S'\x8a\x04'
p4657
tp4658
Rp4659
S'n02099997'
p4660
sg1
(g1030
S'\x8b\x04'
p4661
tp4662
Rp4663
S'n02100399'
p4664
sg1
(g1030
S'\x8c\x04'
p4665
tp4666
Rp4667
S'n02101108'
p4668
sg1
(g1030
S'\x8d\x04'
p4669
tp4670
Rp4671
S'n02102605'
p4672
sg1
(g1030
S'\x8e\x04'
p4673
tp4674
Rp4675
S'n02101861'
p4676
sg1
(g1030
S'\x8f\x04'
p4677
tp4678
Rp4679
S'n02099029'
p4680
sg1
(g1030
S'\x90\x04'
p4681
tp4682
Rp4683
S'n02092468'
p4684
sg1
(g1030
S'\x91\x04'
p4685
tp4686
Rp4687
S'n02095050'
p4688
sg1
(g1030
S'\x92\x04'
p4689
tp4690
Rp4691
S'n02095412'
p4692
sg1
(g1030
S'\x93\x04'
p4693
tp4694
Rp4695
S'n02095727'
p4696
sg1
(g1030
S'\x94\x04'
p4697
tp4698
Rp4699
S'n02096756'
p4700
sg1
(g1030
S'\x95\x04'
p4701
tp4702
Rp4703
S'n02093056'
p4704
sg1
(g1030
S'\x96\x04'
p4705
tp4706
Rp4707
S'n02087551'
p4708
sg1
(g1030
S'\x97\x04'
p4709
tp4710
Rp4711
S'n02090475'
p4712
sg1
(g1030
S'\x98\x04'
p4713
tp4714
Rp4715
S'n02088839'
p4716
sg1
(g1030
S'\x99\x04'
p4717
tp4718
Rp4719
S'n02089555'
p4720
sg1
(g1030
S'\x9a\x04'
p4721
tp4722
Rp4723
S'n02090827'
p4724
sg1
(g1030
S'\x9b\x04'
p4725
tp4726
Rp4727
S'n02112826'
p4728
sg1
(g1030
S'\x9c\x04'
p4729
tp4730
Rp4731
S'n02113335'
p4732
sg1
(g1030
S'\x9d\x04'
p4733
tp4734
Rp4735
S'n02112497'
p4736
sg1
(g1030
S'\x9e\x04'
p4737
tp4738
Rp4739
S'n02103406'
p4740
sg1
(g1030
S'\x9f\x04'
p4741
tp4742
Rp4743
S'n02104523'
p4744
sg1
(g1030
S'\xa0\x04'
p4745
tp4746
Rp4747
S'n02104882'
p4748
sg1
(g1030
S'\xa1\x04'
p4749
tp4750
Rp4751
S'n02103841'
p4752
sg1
(g1030
S'\xa2\x04'
p4753
tp4754
Rp4755
S'n02106966'
p4756
sg1
(g1030
S'\xa3\x04'
p4757
tp4758
Rp4759
S'n02109811'
p4760
sg1
(g1030
S'\xa4\x04'
p4761
tp4762
Rp4763
S'n02107420'
p4764
sg1
(g1030
S'\xa5\x04'
p4765
tp4766
Rp4767
S'n02108254'
p4768
sg1
(g1030
S'\xa6\x04'
p4769
tp4770
Rp4771
S'n02108672'
p4772
sg1
(g1030
S'\xa7\x04'
p4773
tp4774
Rp4775
S'n02111626'
p4776
sg1
(g1030
S'\xa8\x04'
p4777
tp4778
Rp4779
S'n02085374'
p4780
sg1
(g1030
S'\xa9\x04'
p4781
tp4782
Rp4783
S'n02086346'
p4784
sg1
(g1030
S'\xaa\x04'
p4785
tp4786
Rp4787
S'n02086478'
p4788
sg1
(g1030
S'\xab\x04'
p4789
tp4790
Rp4791
S'n02152991'
p4792
sg1
(g1030
S'\xac\x04'
p4793
tp4794
Rp4795
S'n02153203'
p4796
sg1
(g1030
S'\xad\x04'
p4797
tp4798
Rp4799
S'n01795088'
p4800
sg1
(g1030
S'\xae\x04'
p4801
tp4802
Rp4803
S'n01802721'
p4804
sg1
(g1030
S'\xaf\x04'
p4805
tp4806
Rp4807
S'n01803078'
p4808
sg1
(g1030
S'\xb0\x04'
p4809
tp4810
Rp4811
S'n01805801'
p4812
sg1
(g1030
S'\xb1\x04'
p4813
tp4814
Rp4815
S'n02384858'
p4816
sg1
(g1030
S'\xb2\x04'
p4817
tp4818
Rp4819
S'n01466257'
p4820
sg1
(g1030
S'\xb3\x04'
p4821
tp4822
Rp4823
S'n01471682'
p4824
sg1
(g1030
S'\xb4\x04'
p4825
tp4826
Rp4827
S'n01861778'
p4828
sg1
(g1030
S'\xb5\x04'
p4829
tp4830
Rp4831
S'n01886756'
p4832
sg1
(g1030
S'\xb6\x04'
p4833
tp4834
Rp4835
S'n02323449'
p4836
sg1
(g1030
S'\xb7\x04'
p4837
tp4838
Rp4839
S'n02323902'
p4840
sg1
(g1030
S'\xb8\x04'
p4841
tp4842
Rp4843
S'n02324045'
p4844
sg1
(g1030
S'\xb9\x04'
p4845
tp4846
Rp4847
S'n02469914'
p4848
sg1
(g1030
S'\xba\x04'
p4849
tp4850
Rp4851
S'n02496913'
p4852
sg1
(g1030
S'\xbb\x04'
p4853
tp4854
Rp4855
S'n02470325'
p4856
sg1
(g1030
S'\xbc\x04'
p4857
tp4858
Rp4859
S'n02470899'
p4860
sg1
(g1030
S'\xbd\x04'
p4861
tp4862
Rp4863
S'n02480153'
p4864
sg1
(g1030
S'\xbe\x04'
p4865
tp4866
Rp4867
S'n02483092'
p4868
sg1
(g1030
S'\xbf\x04'
p4869
tp4870
Rp4871
S'n02484322'
p4872
sg1
(g1030
S'\xc0\x04'
p4873
tp4874
Rp4875
S'n02489589'
p4876
sg1
(g1030
S'\xc1\x04'
p4877
tp4878
Rp4879
S'n02484473'
p4880
sg1
(g1030
S'\xc2\x04'
p4881
tp4882
Rp4883
S'n02503127'
p4884
sg1
(g1030
S'\xc3\x04'
p4885
tp4886
Rp4887
S'n02503517'
p4888
sg1
(g1030
S'\xc4\x04'
p4889
tp4890
Rp4891
S'n02075296'
p4892
sg1
(g1030
S'\xc5\x04'
p4893
tp4894
Rp4895
S'n02131653'
p4896
sg1
(g1030
S'\xc6\x04'
p4897
tp4898
Rp4899
S'n02441326'
p4900
sg1
(g1030
S'\xc7\x04'
p4901
tp4902
Rp4903
S'n02507649'
p4904
sg1
(g1030
S'\xc8\x04'
p4905
tp4906
Rp4907
S'n02134971'
p4908
sg1
(g1030
S'\xc9\x04'
p4909
tp4910
Rp4911
S'n02083346'
p4912
sg1
(g1030
S'\xca\x04'
p4913
tp4914
Rp4915
S'n02115335'
p4916
sg1
(g1030
S'\xcb\x04'
p4917
tp4918
Rp4919
S'n02118333'
p4920
sg1
(g1030
S'\xcc\x04'
p4921
tp4922
Rp4923
S'n02114100'
p4924
sg1
(g1030
S'\xcd\x04'
p4925
tp4926
Rp4927
S'n02120997'
p4928
sg1
(g1030
S'\xce\x04'
p4929
tp4930
Rp4931
S'n02121620'
p4932
sg1
(g1030
S'\xcf\x04'
p4933
tp4934
Rp4935
S'n02124623'
p4936
sg1
(g1030
S'\xd0\x04'
p4937
tp4938
Rp4939
S'n02127808'
p4940
sg1
(g1030
S'\xd1\x04'
p4941
tp4942
Rp4943
S'n02062017'
p4944
sg1
(g1030
S'\xd2\x04'
p4945
tp4946
Rp4947
S'n02073250'
p4948
sg1
(g1030
S'\xd3\x04'
p4949
tp4950
Rp4951
S'n02075927'
p4952
sg1
(g1030
S'\xd4\x04'
p4953
tp4954
Rp4955
S'n02076196'
p4956
sg1
(g1030
S'\xd5\x04'
p4957
tp4958
Rp4959
S'n02076779'
p4960
sg1
(g1030
S'\xd6\x04'
p4961
tp4962
Rp4963
S'n02062430'
p4964
sg1
(g1030
S'\xd7\x04'
p4965
tp4966
Rp4967
S'n02062744'
p4968
sg1
(g1030
S'\xd8\x04'
p4969
tp4970
Rp4971
S'n02066707'
p4972
sg1
(g1030
S'\xd9\x04'
p4973
tp4974
Rp4975
S'n02068974'
p4976
sg1
(g1030
S'\xda\x04'
p4977
tp4978
Rp4979
S'n02063224'
p4980
sg1
(g1030
S'\xdb\x04'
p4981
tp4982
Rp4983
S'n02370806'
p4984
sg1
(g1030
S'\xdc\x04'
p4985
tp4986
Rp4987
S'n02373336'
p4988
sg1
(g1030
S'\xdd\x04'
p4989
tp4990
Rp4991
S'n02374149'
p4992
sg1
(g1030
S'\xde\x04'
p4993
tp4994
Rp4995
S'n02374451'
p4996
sg1
(g1030
S'\xdf\x04'
p4997
tp4998
Rp4999
S'n02394477'
p5000
sg1
(g1030
S'\xe0\x04'
p5001
tp5002
Rp5003
S'n02437136'
p5004
sg1
(g1030
S'\xe1\x04'
p5005
tp5006
Rp5007
S'n02399000'
p5008
sg1
(g1030
S'\xe2\x04'
p5009
tp5010
Rp5011
S'n02401031'
p5012
sg1
(g1030
S'\xe3\x04'
p5013
tp5014
Rp5015
S'n02411705'
p5016
sg1
(g1030
S'\xe4\x04'
p5017
tp5018
Rp5019
S'n02419796'
p5020
sg1
(g1030
S'\xe5\x04'
p5021
tp5022
Rp5023
S'n02414578'
p5024
sg1
(g1030
S'\xe6\x04'
p5025
tp5026
Rp5027
S'n02415435'
p5028
sg1
(g1030
S'\xe7\x04'
p5029
tp5030
Rp5031
S'n02416519'
p5032
sg1
(g1030
S'\xe8\x04'
p5033
tp5034
Rp5035
S'n02417534'
p5036
sg1
(g1030
S'\xe9\x04'
p5037
tp5038
Rp5039
S'n02407959'
p5040
sg1
(g1030
S'\xea\x04'
p5041
tp5042
Rp5043
S'n02402010'
p5044
sg1
(g1030
S'\xeb\x04'
p5045
tp5046
Rp5047
S'n02402425'
p5048
sg1
(g1030
S'\xec\x04'
p5049
tp5050
Rp5051
S'n02395003'
p5052
sg1
(g1030
S'\xed\x04'
p5053
tp5054
Rp5055
S'n02453611'
p5056
sg1
(g1030
S'\xee\x04'
p5057
tp5058
Rp5059
S'n02456962'
p5060
sg1
(g1030
S'\xef\x04'
p5061
tp5062
Rp5063
S'n02453108'
p5064
sg1
(g1030
S'\xf0\x04'
p5065
tp5066
Rp5067
S'n02329401'
p5068
sg1
(g1030
S'\xf1\x04'
p5069
tp5070
Rp5071
S'n02364520'
p5072
sg1
(g1030
S'\xf2\x04'
p5073
tp5074
Rp5075
S'n02355227'
p5076
sg1
(g1030
S'\xf3\x04'
p5077
tp5078
Rp5079
S'n02355477'
p5080
sg1
(g1030
S'\xf4\x04'
p5081
tp5082
Rp5083
S'n01871543'
p5084
sg1
(g1030
S'\xf5\x04'
p5085
tp5086
Rp5087
S'n01871875'
p5088
sg1
(g1030
S'\xf6\x04'
p5089
tp5090
Rp5091
S'n01873982'
p5092
sg1
(g1030
S'\xf7\x04'
p5093
tp5094
Rp5095
S'n01874434'
p5096
sg1
(g1030
S'\xf8\x04'
p5097
tp5098
Rp5099
S'n01881171'
p5100
sg1
(g1030
S'\xf9\x04'
p5101
tp5102
Rp5103
S'n01877134'
p5104
sg1
(g1030
S'\xfa\x04'
p5105
tp5106
Rp5107
S'n01503061'
p5108
sg1
(g1030
S'\xfb\x04'
p5109
tp5110
Rp5111
S'n01517565'
p5112
sg1
(g1030
S'\xfc\x04'
p5113
tp5114
Rp5115
S'n01524359'
p5116
sg1
(g1030
S'\xfd\x04'
p5117
tp5118
Rp5119
S'n01525720'
p5120
sg1
(g1030
S'\xfe\x04'
p5121
tp5122
Rp5123
S'n01529672'
p5124
sg1
(g1030
S'\xff\x04'
p5125
tp5126
Rp5127
S'n01537134'
p5128
sg1
(g1030
S'\x00\x05'
p5129
tp5130
Rp5131
S'n01557185'
p5132
sg1
(g1030
S'\x01\x05'
p5133
tp5134
Rp5135
S'n01560105'
p5136
sg1
(g1030
S'\x02\x05'
p5137
tp5138
Rp5139
S'n01578575'
p5140
sg1
(g1030
S'\x03\x05'
p5141
tp5142
Rp5143
S'n01591697'
p5144
sg1
(g1030
S'\x04\x05'
p5145
tp5146
Rp5147
S'n01604330'
p5148
sg1
(g1030
S'\x05\x05'
p5149
tp5150
Rp5151
S'n01605630'
p5152
sg1
(g1030
S'\x06\x05'
p5153
tp5154
Rp5155
S'n01613294'
p5156
sg1
(g1030
S'\x07\x05'
p5157
tp5158
Rp5159
S'n01621127'
p5160
sg1
(g1030
S'\x08\x05'
p5161
tp5162
Rp5163
S'n01789386'
p5164
sg1
(g1030
S'\t\x05'
p5165
tp5166
Rp5167
S'n01816887'
p5168
sg1
(g1030
S'\n\x05'
p5169
tp5170
Rp5171
S'n01819115'
p5172
sg1
(g1030
S'\x0b\x05'
p5173
tp5174
Rp5175
S'n01820348'
p5176
sg1
(g1030
S'\x0c\x05'
p5177
tp5178
Rp5179
S'n01822602'
p5180
sg1
(g1030
S'\r\x05'
p5181
tp5182
Rp5183
S'n01823013'
p5184
sg1
(g1030
S'\x0e\x05'
p5185
tp5186
Rp5187
S'n01825930'
p5188
sg1
(g1030
S'\x0f\x05'
p5189
tp5190
Rp5191
S'n01831712'
p5192
sg1
(g1030
S'\x10\x05'
p5193
tp5194
Rp5195
S'n01838038'
p5196
sg1
(g1030
S'\x11\x05'
p5197
tp5198
Rp5199
S'n01844917'
p5200
sg1
(g1030
S'\x12\x05'
p5201
tp5202
Rp5203
S'n01845132'
p5204
sg1
(g1030
S'\x13\x05'
p5205
tp5206
Rp5207
S'n01845477'
p5208
sg1
(g1030
S'\x14\x05'
p5209
tp5210
Rp5211
S'n01846331'
p5212
sg1
(g1030
S'\x15\x05'
p5213
tp5214
Rp5215
S'n01852861'
p5216
sg1
(g1030
S'\x16\x05'
p5217
tp5218
Rp5219
S'n01854415'
p5220
sg1
(g1030
S'\x17\x05'
p5221
tp5222
Rp5223
S'n01858441'
p5224
sg1
(g1030
S'\x18\x05'
p5225
tp5226
Rp5227
S'n02000954'
p5228
sg1
(g1030
S'\x19\x05'
p5229
tp5230
Rp5231
S'n02002075'
p5232
sg1
(g1030
S'\x1a\x05'
p5233
tp5234
Rp5235
S'n02008041'
p5236
sg1
(g1030
S'\x1b\x05'
p5237
tp5238
Rp5239
S'n02008796'
p5240
sg1
(g1030
S'\x1c\x05'
p5241
tp5242
Rp5243
S'n02014941'
p5244
sg1
(g1030
S'\x1d\x05'
p5245
tp5246
Rp5247
S'n02018027'
p5248
sg1
(g1030
S'\x1e\x05'
p5249
tp5250
Rp5251
S'n02022684'
p5252
sg1
(g1030
S'\x1f\x05'
p5253
tp5254
Rp5255
S'n02023341'
p5256
sg1
(g1030
S' \x05'
p5257
tp5258
Rp5259
S'n02025043'
p5260
sg1
(g1030
S'!\x05'
p5261
tp5262
Rp5263
S'n02026059'
p5264
sg1
(g1030
S'"\x05'
p5265
tp5266
Rp5267
S'n02031934'
p5268
sg1
(g1030
S'#\x05'
p5269
tp5270
Rp5271
S'n02016358'
p5272
sg1
(g1030
S'$\x05'
p5273
tp5274
Rp5275
S'n02016956'
p5276
sg1
(g1030
S'%\x05'
p5277
tp5278
Rp5279
S'n02021795'
p5280
sg1
(g1030
S'&\x05'
p5281
tp5282
Rp5283
S'n02051474'
p5284
sg1
(g1030
S"'\x05"
p5285
tp5286
Rp5287
S'n02055658'
p5288
sg1
(g1030
S'(\x05'
p5289
tp5290
Rp5291
S'n02055803'
p5292
sg1
(g1030
S')\x05'
p5293
tp5294
Rp5295
S'n02057731'
p5296
sg1
(g1030
S'*\x05'
p5297
tp5298
Rp5299
S'n01661091'
p5300
sg1
(g1030
S'+\x05'
p5301
tp5302
Rp5303
S'n01661592'
p5304
sg1
(g1030
S',\x05'
p5305
tp5306
Rp5307
S'n01662622'
p5308
sg1
(g1030
S'-\x05'
p5309
tp5310
Rp5311
S'n01662784'
p5312
sg1
(g1030
S'.\x05'
p5313
tp5314
Rp5315
S'n01663401'
p5316
sg1
(g1030
S'/\x05'
p5317
tp5318
Rp5319
S'n01661818'
p5320
sg1
(g1030
S'0\x05'
p5321
tp5322
Rp5323
S'n01674216'
p5324
sg1
(g1030
S'1\x05'
p5325
tp5326
Rp5327
S'n01674464'
p5328
sg1
(g1030
S'2\x05'
p5329
tp5330
Rp5331
S'n01674990'
p5332
sg1
(g1030
S'3\x05'
p5333
tp5334
Rp5335
S'n01676755'
p5336
sg1
(g1030
S'4\x05'
p5337
tp5338
Rp5339
S'n01685439'
p5340
sg1
(g1030
S'5\x05'
p5341
tp5342
Rp5343
S'n01687665'
p5344
sg1
(g1030
S'6\x05'
p5345
tp5346
Rp5347
S'n01689411'
p5348
sg1
(g1030
S'7\x05'
p5349
tp5350
Rp5351
S'n01691951'
p5352
sg1
(g1030
S'8\x05'
p5353
tp5354
Rp5355
S'n01692864'
p5356
sg1
(g1030
S'9\x05'
p5357
tp5358
Rp5359
S'n01693783'
p5360
sg1
(g1030
S':\x05'
p5361
tp5362
Rp5363
S'n01694709'
p5364
sg1
(g1030
S';\x05'
p5365
tp5366
Rp5367
S'n01695681'
p5368
sg1
(g1030
S'<\x05'
p5369
tp5370
Rp5371
S'n01699831'
p5372
sg1
(g1030
S'=\x05'
p5373
tp5374
Rp5375
S'n01700470'
p5376
sg1
(g1030
S'>\x05'
p5377
tp5378
Rp5379
S'n01703569'
p5380
sg1
(g1030
S'?\x05'
p5381
tp5382
Rp5383
S'n01696633'
p5384
sg1
(g1030
S'@\x05'
p5385
tp5386
Rp5387
S'n01698434'
p5388
sg1
(g1030
S'A\x05'
p5389
tp5390
Rp5391
S'n01697178'
p5392
sg1
(g1030
S'B\x05'
p5393
tp5394
Rp5395
S'n01726692'
p5396
sg1
(g1030
S'C\x05'
p5397
tp5398
Rp5399
S'n01727646'
p5400
sg1
(g1030
S'D\x05'
p5401
tp5402
Rp5403
S'n01741562'
p5404
sg1
(g1030
S'E\x05'
p5405
tp5406
Rp5407
S'n01741943'
p5408
sg1
(g1030
S'F\x05'
p5409
tp5410
Rp5411
S'n01743605'
p5412
sg1
(g1030
S'G\x05'
p5413
tp5414
Rp5415
S'n01745125'
p5416
sg1
(g1030
S'H\x05'
p5417
tp5418
Rp5419
S'n01747885'
p5420
sg1
(g1030
S'I\x05'
p5421
tp5422
Rp5423
S'n01749582'
p5424
sg1
(g1030
S'J\x05'
p5425
tp5426
Rp5427
S'n01749742'
p5428
sg1
(g1030
S'K\x05'
p5429
tp5430
Rp5431
S'n01752165'
p5432
sg1
(g1030
S'L\x05'
p5433
tp5434
Rp5435
S'n01753959'
p5436
sg1
(g1030
S'M\x05'
p5437
tp5438
Rp5439
S'n01754876'
p5440
sg1
(g1030
S'N\x05'
p5441
tp5442
Rp5443
S'n01627424'
p5444
sg1
(g1030
S'O\x05'
p5445
tp5446
Rp5447
S'n01639765'
p5448
sg1
(g1030
S'P\x05'
p5449
tp5450
Rp5451
S'n01640846'
p5452
sg1
(g1030
S'Q\x05'
p5453
tp5454
Rp5455
S'n01629276'
p5456
sg1
(g1030
S'R\x05'
p5457
tp5458
Rp5459
S'n01630284'
p5460
sg1
(g1030
S'S\x05'
p5461
tp5462
Rp5463
S'n01632047'
p5464
sg1
(g1030
S'T\x05'
p5465
tp5466
Rp5467
S'n01473806'
p5468
sg1
(g1030
S'U\x05'
p5469
tp5470
Rp5471
S'n02512053'
p5472
sg1
(g1030
S'V\x05'
p5473
tp5474
Rp5475
S'n01480516'
p5476
sg1
(g1030
S'W\x05'
p5477
tp5478
Rp5479
S'n01482071'
p5480
sg1
(g1030
S'X\x05'
p5481
tp5482
Rp5483
S'n01482330'
p5484
sg1
(g1030
S'Y\x05'
p5485
tp5486
Rp5487
S'n01483522'
p5488
sg1
(g1030
S'Z\x05'
p5489
tp5490
Rp5491
S'n01488918'
p5492
sg1
(g1030
S'[\x05'
p5493
tp5494
Rp5495
S'n01495701'
p5496
sg1
(g1030
S'\\\x05'
p5497
tp5498
Rp5499
S'n02512938'
p5500
sg1
(g1030
S']\x05'
p5501
tp5502
Rp5503
S'n02534734'
p5504
sg1
(g1030
S'^\x05'
p5505
tp5506
Rp5507
S'n02514825'
p5508
sg1
(g1030
S'_\x05'
p5509
tp5510
Rp5511
S'n02528163'
p5512
sg1
(g1030
S'`\x05'
p5513
tp5514
Rp5515
S'n01428580'
p5516
sg1
(g1030
S'a\x05'
p5517
tp5518
Rp5519
S'n01438208'
p5520
sg1
(g1030
S'b\x05'
p5521
tp5522
Rp5523
S'n01439121'
p5524
sg1
(g1030
S'c\x05'
p5525
tp5526
Rp5527
S'n02534559'
p5528
sg1
(g1030
S'd\x05'
p5529
tp5530
Rp5531
S'n02552171'
p5532
sg1
(g1030
S'e\x05'
p5533
tp5534
Rp5535
S'n02554730'
p5536
sg1
(g1030
S'f\x05'
p5537
tp5538
Rp5539
S'n02605316'
p5540
sg1
(g1030
S'g\x05'
p5541
tp5542
Rp5543
S'n02606384'
p5544
sg1
(g1030
S'h\x05'
p5545
tp5546
Rp5547
S'n02642107'
p5548
sg1
(g1030
S'i\x05'
p5549
tp5550
Rp5551
S'n02642644'
p5552
sg1
(g1030
S'j\x05'
p5553
tp5554
Rp5555
S'n02652668'
p5556
sg1
(g1030
S'k\x05'
p5557
tp5558
Rp5559
S'n02638596'
p5560
sg1
(g1030
S'l\x05'
p5561
tp5562
Rp5563
S'n00021939'
p5564
sg1
(g1030
S'm\x05'
p5565
tp5566
Rp5567
S'n03575240'
p5568
sg1
(g1030
S'n\x05'
p5569
tp5570
Rp5571
S'n03183080'
p5572
sg1
(g1030
S'o\x05'
p5573
tp5574
Rp5575
S'n03800933'
p5576
sg1
(g1030
S'p\x05'
p5577
tp5578
Rp5579
S'n03614532'
p5580
sg1
(g1030
S'q\x05'
p5581
tp5582
Rp5583
S'n03928116'
p5584
sg1
(g1030
S'r\x05'
p5585
tp5586
Rp5587
S'n03915437'
p5588
sg1
(g1030
S's\x05'
p5589
tp5590
Rp5591
S'n04338517'
p5592
sg1
(g1030
S't\x05'
p5593
tp5594
Rp5595
S'n02880546'
p5596
sg1
(g1030
S'u\x05'
p5597
tp5598
Rp5599
S'n03025886'
p5600
sg1
(g1030
S'v\x05'
p5601
tp5602
Rp5603
S'n03467517'
p5604
sg1
(g1030
S'w\x05'
p5605
tp5606
Rp5607
S'n04586932'
p5608
sg1
(g1030
S'x\x05'
p5609
tp5610
Rp5611
S'n02891788'
p5612
sg1
(g1030
S'y\x05'
p5613
tp5614
Rp5615
S'n03393324'
p5616
sg1
(g1030
S'z\x05'
p5617
tp5618
Rp5619
S'n03945615'
p5620
sg1
(g1030
S'{\x05'
p5621
tp5622
Rp5623
S'n04598582'
p5624
sg1
(g1030
S'|\x05'
p5625
tp5626
Rp5627
S'n02817799'
p5628
sg1
(g1030
S'}\x05'
p5629
tp5630
Rp5631
S'n03228016'
p5632
sg1
(g1030
S'~\x05'
p5633
tp5634
Rp5635
S'n04222847'
p5636
sg1
(g1030
S'\x7f\x05'
p5637
tp5638
Rp5639
S'n02676261'
p5640
sg1
(g1030
S'\x80\x05'
p5641
tp5642
Rp5643
S'n02688443'
p5644
sg1
(g1030
S'\x81\x05'
p5645
tp5646
Rp5647
S'n02730265'
p5648
sg1
(g1030
S'\x82\x05'
p5649
tp5650
Rp5651
S'n02855089'
p5652
sg1
(g1030
S'\x83\x05'
p5653
tp5654
Rp5655
S'n02895606'
p5656
sg1
(g1030
S'\x84\x05'
p5657
tp5658
Rp5659
S'n03269401'
p5660
sg1
(g1030
S'\x85\x05'
p5661
tp5662
Rp5663
S'n04470953'
p5664
sg1
(g1030
S'\x86\x05'
p5665
tp5666
Rp5667
S'n03274561'
p5668
sg1
(g1030
S'\x87\x05'
p5669
tp5670
Rp5671
S'n03277771'
p5672
sg1
(g1030
S'\x88\x05'
p5673
tp5674
Rp5675
S'n03211117'
p5676
sg1
(g1030
S'\x89\x05'
p5677
tp5678
Rp5679
S'n03320046'
p5680
sg1
(g1030
S'\x8a\x05'
p5681
tp5682
Rp5683
S'n03339643'
p5684
sg1
(g1030
S'\x8b\x05'
p5685
tp5686
Rp5687
S'n03508101'
p5688
sg1
(g1030
S'\x8c\x05'
p5689
tp5690
Rp5691
S'n03574816'
p5692
sg1
(g1030
S'\x8d\x05'
p5693
tp5694
Rp5695
S'n03575691'
p5696
sg1
(g1030
S'\x8e\x05'
p5697
tp5698
Rp5699
S'n03733925'
p5700
sg1
(g1030
S'\x8f\x05'
p5701
tp5702
Rp5703
S'n03735637'
p5704
sg1
(g1030
S'\x90\x05'
p5705
tp5706
Rp5707
S'n03753077'
p5708
sg1
(g1030
S'\x91\x05'
p5709
tp5710
Rp5711
S'n04437953'
p5712
sg1
(g1030
S'\x92\x05'
p5713
tp5714
Rp5715
S'n04555897'
p5716
sg1
(g1030
S'\x93\x05'
p5717
tp5718
Rp5719
S'n03046257'
p5720
sg1
(g1030
S'\x94\x05'
p5721
tp5722
Rp5723
S'n04134632'
p5724
sg1
(g1030
S'\x95\x05'
p5725
tp5726
Rp5727
S'n04438304'
p5728
sg1
(g1030
S'\x96\x05'
p5729
tp5730
Rp5731
S'n03739693'
p5732
sg1
(g1030
S'\x97\x05'
p5733
tp5734
Rp5735
S'n03813176'
p5736
sg1
(g1030
S'\x98\x05'
p5737
tp5738
Rp5739
S'n03080497'
p5740
sg1
(g1030
S'\x99\x05'
p5741
tp5742
Rp5743
S'n03852280'
p5744
sg1
(g1030
S'\x9a\x05'
p5745
tp5746
Rp5747
S'n04272054'
p5748
sg1
(g1030
S'\x9b\x05'
p5749
tp5750
Rp5751
S'n04147495'
p5752
sg1
(g1030
S'\x9c\x05'
p5753
tp5754
Rp5755
S'n03709206'
p5756
sg1
(g1030
S'\x9d\x05'
p5757
tp5758
Rp5759
S'n03760671'
p5760
sg1
(g1030
S'\x9e\x05'
p5761
tp5762
Rp5763
S'n03667829'
p5764
sg1
(g1030
S'\x9f\x05'
p5765
tp5766
Rp5767
S'n03484931'
p5768
sg1
(g1030
S'\xa0\x05'
p5769
tp5770
Rp5771
S'n04403638'
p5772
sg1
(g1030
S'\xa1\x05'
p5773
tp5774
Rp5775
S'n02751295'
p5776
sg1
(g1030
S'\xa2\x05'
p5777
tp5778
Rp5779
S'n04565375'
p5780
sg1
(g1030
S'\xa3\x05'
p5781
tp5782
Rp5783
S'n03467984'
p5784
sg1
(g1030
S'\xa4\x05'
p5785
tp5786
Rp5787
S'n03343853'
p5788
sg1
(g1030
S'\xa5\x05'
p5789
tp5790
Rp5791
S'n02759963'
p5792
sg1
(g1030
S'\xa6\x05'
p5793
tp5794
Rp5795
S'n02760429'
p5796
sg1
(g1030
S'\xa7\x05'
p5797
tp5798
Rp5799
S'n02760855'
p5800
sg1
(g1030
S'\xa8\x05'
p5801
tp5802
Rp5803
S'n03701391'
p5804
sg1
(g1030
S'\xa9\x05'
p5805
tp5806
Rp5807
S'n03948459'
p5808
sg1
(g1030
S'\xaa\x05'
p5809
tp5810
Rp5811
S'n03614007'
p5812
sg1
(g1030
S'\xab\x05'
p5813
tp5814
Rp5815
S'n03664675'
p5816
sg1
(g1030
S'\xac\x05'
p5817
tp5818
Rp5819
S'n03699975'
p5820
sg1
(g1030
S'\xad\x05'
p5821
tp5822
Rp5823
S'n03997484'
p5824
sg1
(g1030
S'\xae\x05'
p5825
tp5826
Rp5827
S'n03996145'
p5828
sg1
(g1030
S'\xaf\x05'
p5829
tp5830
Rp5831
S'n02938886'
p5832
sg1
(g1030
S'\xb0\x05'
p5833
tp5834
Rp5835
S'n03082979'
p5836
sg1
(g1030
S'\xb1\x05'
p5837
tp5838
Rp5839
S'n02708224'
p5840
sg1
(g1030
S'\xb2\x05'
p5841
tp5842
Rp5843
S'n03196324'
p5844
sg1
(g1030
S'\xb3\x05'
p5845
tp5846
Rp5847
S'n03918480'
p5848
sg1
(g1030
S'\xb4\x05'
p5849
tp5850
Rp5851
S'n03985232'
p5852
sg1
(g1030
S'\xb5\x05'
p5853
tp5854
Rp5855
S'n03322940'
p5856
sg1
(g1030
S'\xb6\x05'
p5857
tp5858
Rp5859
S'n04004475'
p5860
sg1
(g1030
S'\xb7\x05'
p5861
tp5862
Rp5863
S'n04243941'
p5864
sg1
(g1030
S'\xb8\x05'
p5865
tp5866
Rp5867
S'n04417180'
p5868
sg1
(g1030
S'\xb9\x05'
p5869
tp5870
Rp5871
S'n03738472'
p5872
sg1
(g1030
S'\xba\x05'
p5873
tp5874
Rp5875
S'n03096960'
p5876
sg1
(g1030
S'\xbb\x05'
p5877
tp5878
Rp5879
S'n03736970'
p5880
sg1
(g1030
S'\xbc\x05'
p5881
tp5882
Rp5883
S'n03700963'
p5884
sg1
(g1030
S'\xbd\x05'
p5885
tp5886
Rp5887
S'n04574999'
p5888
sg1
(g1030
S'\xbe\x05'
p5889
tp5890
Rp5891
S'n04021798'
p5892
sg1
(g1030
S'\xbf\x05'
p5893
tp5894
Rp5895
S'n04088797'
p5896
sg1
(g1030
S'\xc0\x05'
p5897
tp5898
Rp5899
S'n04586421'
p5900
sg1
(g1030
S'\xc1\x05'
p5901
tp5902
Rp5903
S'n04110955'
p5904
sg1
(g1030
S'\xc2\x05'
p5905
tp5906
Rp5907
S'n03032811'
p5908
sg1
(g1030
S'\xc3\x05'
p5909
tp5910
Rp5911
S'n03208556'
p5912
sg1
(g1030
S'\xc4\x05'
p5913
tp5914
Rp5915
S'n03744840'
p5916
sg1
(g1030
S'\xc5\x05'
p5917
tp5918
Rp5919
S'n03706653'
p5920
sg1
(g1030
S'\xc6\x05'
p5921
tp5922
Rp5923
S'n03851341'
p5924
sg1
(g1030
S'\xc7\x05'
p5925
tp5926
Rp5927
S'n03656484'
p5928
sg1
(g1030
S'\xc8\x05'
p5929
tp5930
Rp5931
S'n03099771'
p5932
sg1
(g1030
S'\xc9\x05'
p5933
tp5934
Rp5935
S'n04069276'
p5936
sg1
(g1030
S'\xca\x05'
p5937
tp5938
Rp5939
S'n03773035'
p5940
sg1
(g1030
S'\xcb\x05'
p5941
tp5942
Rp5943
S'n04081844'
p5944
sg1
(g1030
S'\xcc\x05'
p5945
tp5946
Rp5947
S'n02889425'
p5948
sg1
(g1030
S'\xcd\x05'
p5949
tp5950
Rp5951
S'n02891188'
p5952
sg1
(g1030
S'\xce\x05'
p5953
tp5954
Rp5955
S'n03551084'
p5956
sg1
(g1030
S'\xcf\x05'
p5957
tp5958
Rp5959
S'n03323703'
p5960
sg1
(g1030
S'\xd0\x05'
p5961
tp5962
Rp5963
S'n03043958'
p5964
sg1
(g1030
S'\xd1\x05'
p5965
tp5966
Rp5967
S'n03682487'
p5968
sg1
(g1030
S'\xd2\x05'
p5969
tp5970
Rp5971
S'n03940256'
p5972
sg1
(g1030
S'\xd3\x05'
p5973
tp5974
Rp5975
S'n04125853'
p5976
sg1
(g1030
S'\xd4\x05'
p5977
tp5978
Rp5979
S'n04120093'
p5980
sg1
(g1030
S'\xd5\x05'
p5981
tp5982
Rp5983
S'n04217718'
p5984
sg1
(g1030
S'\xd6\x05'
p5985
tp5986
Rp5987
S'n04263760'
p5988
sg1
(g1030
S'\xd7\x05'
p5989
tp5990
Rp5991
S'n03636248'
p5992
sg1
(g1030
S'\xd8\x05'
p5993
tp5994
Rp5995
S'n03640988'
p5996
sg1
(g1030
S'\xd9\x05'
p5997
tp5998
Rp5999
S'n03665366'
p6000
sg1
(g1030
S'\xda\x05'
p6001
tp6002
Rp6003
S'n04336034'
p6004
sg1
(g1030
S'\xdb\x05'
p6005
tp6006
Rp6007
S'n02887209'
p6008
sg1
(g1030
S'\xdc\x05'
p6009
tp6010
Rp6011
S'n04359589'
p6012
sg1
(g1030
S'\xdd\x05'
p6013
tp6014
Rp6015
S'n04038440'
p6016
sg1
(g1030
S'\xde\x05'
p6017
tp6018
Rp6019
S'n04341414'
p6020
sg1
(g1030
S'\xdf\x05'
p6021
tp6022
Rp6023
S'n04515129'
p6024
sg1
(g1030
S'\xe0\x05'
p6025
tp6026
Rp6027
S'n03988170'
p6028
sg1
(g1030
S'\xe1\x05'
p6029
tp6030
Rp6031
S'n04474466'
p6032
sg1
(g1030
S'\xe2\x05'
p6033
tp6034
Rp6035
S'n04568557'
p6036
sg1
(g1030
S'\xe3\x05'
p6037
tp6038
Rp6039
S'n03563967'
p6040
sg1
(g1030
S'\xe4\x05'
p6041
tp6042
Rp6043
S'n04451818'
p6044
sg1
(g1030
S'\xe5\x05'
p6045
tp6046
Rp6047
S'n03154446'
p6048
sg1
(g1030
S'\xe6\x05'
p6049
tp6050
Rp6051
S'n03154073'
p6052
sg1
(g1030
S'\xe7\x05'
p6053
tp6054
Rp6055
S'n03265032'
p6056
sg1
(g1030
S'\xe8\x05'
p6057
tp6058
Rp6059
S'n02764044'
p6060
sg1
(g1030
S'\xe9\x05'
p6061
tp6062
Rp6063
S'n03623556'
p6064
sg1
(g1030
S'\xea\x05'
p6065
tp6066
Rp6067
S'n03239726'
p6068
sg1
(g1030
S'\xeb\x05'
p6069
tp6070
Rp6071
S'n03418242'
p6072
sg1
(g1030
S'\xec\x05'
p6073
tp6074
Rp6075
S'n03489162'
p6076
sg1
(g1030
S'\xed\x05'
p6077
tp6078
Rp6079
S'n03848348'
p6080
sg1
(g1030
S'\xee\x05'
p6081
tp6082
Rp6083
S'n02877962'
p6084
sg1
(g1030
S'\xef\x05'
p6085
tp6086
Rp6087
S'n04516672'
p6088
sg1
(g1030
S'\xf0\x05'
p6089
tp6090
Rp6091
S'n03621049'
p6092
sg1
(g1030
S'\xf1\x05'
p6093
tp6094
Rp6095
S'n03101986'
p6096
sg1
(g1030
S'\xf2\x05'
p6097
tp6098
Rp6099
S'n03101156'
p6100
sg1
(g1030
S'\xf3\x05'
p6101
tp6102
Rp6103
S'n03880531'
p6104
sg1
(g1030
S'\xf4\x05'
p6105
tp6106
Rp6107
S'n03990474'
p6108
sg1
(g1030
S'\xf5\x05'
p6109
tp6110
Rp6111
S'n04500060'
p6112
sg1
(g1030
S'\xf6\x05'
p6113
tp6114
Rp6115
S'n03039947'
p6116
sg1
(g1030
S'\xf7\x05'
p6117
tp6118
Rp6119
S'n02908217'
p6120
sg1
(g1030
S'\xf8\x05'
p6121
tp6122
Rp6123
S'n03294833'
p6124
sg1
(g1030
S'\xf9\x05'
p6125
tp6126
Rp6127
S'n04185071'
p6128
sg1
(g1030
S'\xfa\x05'
p6129
tp6130
Rp6131
S'n03837422'
p6132
sg1
(g1030
S'\xfb\x05'
p6133
tp6134
Rp6135
S'n04100174'
p6136
sg1
(g1030
S'\xfc\x05'
p6137
tp6138
Rp6139
S'n04608567'
p6140
sg1
(g1030
S'\xfd\x05'
p6141
tp6142
Rp6143
S'n03906997'
p6144
sg1
(g1030
S'\xfe\x05'
p6145
tp6146
Rp6147
S'n04317420'
p6148
sg1
(g1030
S'\xff\x05'
p6149
tp6150
Rp6151
S'n04296261'
p6152
sg1
(g1030
S'\x00\x06'
p6153
tp6154
Rp6155
S'n02788689'
p6156
sg1
(g1030
S'\x01\x06'
p6157
tp6158
Rp6159
S'n03659292'
p6160
sg1
(g1030
S'\x02\x06'
p6161
tp6162
Rp6163
S'n03613592'
p6164
sg1
(g1030
S'\x03\x06'
p6165
tp6166
Rp6167
S'n04285622'
p6168
sg1
(g1030
S'\x04\x06'
p6169
tp6170
Rp6171
S'n03094503'
p6172
sg1
(g1030
S'\x05\x06'
p6173
tp6174
Rp6175
S'n04576211'
p6176
sg1
(g1030
S'\x06\x06'
p6177
tp6178
Rp6179
S'n02834778'
p6180
sg1
(g1030
S'\x07\x06'
p6181
tp6182
Rp6183
S'n02959942'
p6184
sg1
(g1030
S'\x08\x06'
p6185
tp6186
Rp6187
S'n03484083'
p6188
sg1
(g1030
S'\t\x06'
p6189
tp6190
Rp6191
S'n04170037'
p6192
sg1
(g1030
S'\n\x06'
p6193
tp6194
Rp6195
S'n02740533'
p6196
sg1
(g1030
S'\x0b\x06'
p6197
tp6198
Rp6199
S'n03684823'
p6200
sg1
(g1030
S'\x0c\x06'
p6201
tp6202
Rp6203
S'n03791235'
p6204
sg1
(g1030
S'\r\x06'
p6205
tp6206
Rp6207
S'n02958343'
p6208
sg1
(g1030
S'\x0e\x06'
p6209
tp6210
Rp6211
S'n03790512'
p6212
sg1
(g1030
S'\x0f\x06'
p6213
tp6214
Rp6215
S'n03769722'
p6216
sg1
(g1030
S'\x10\x06'
p6217
tp6218
Rp6219
S'n04490091'
p6220
sg1
(g1030
S'\x11\x06'
p6221
tp6222
Rp6223
S'n04520170'
p6224
sg1
(g1030
S'\x12\x06'
p6225
tp6226
Rp6227
S'n03896419'
p6228
sg1
(g1030
S'\x13\x06'
p6229
tp6230
Rp6231
S'n04464852'
p6232
sg1
(g1030
S'\x14\x06'
p6233
tp6234
Rp6235
S'n04467099'
p6236
sg1
(g1030
S'\x15\x06'
p6237
tp6238
Rp6239
S'n04543158'
p6240
sg1
(g1030
S'\x16\x06'
p6241
tp6242
Rp6243
S'n02970849'
p6244
sg1
(g1030
S'\x17\x06'
p6245
tp6246
Rp6247
S'n02801938'
p6248
sg1
(g1030
S'\x18\x06'
p6249
tp6250
Rp6251
S'n02773037'
p6252
sg1
(g1030
S'\x19\x06'
p6253
tp6254
Rp6255
S'n04284002'
p6256
sg1
(g1030
S'\x1a\x06'
p6257
tp6258
Rp6259
S'n04139859'
p6260
sg1
(g1030
S'\x1b\x06'
p6261
tp6262
Rp6263
S'n03206908'
p6264
sg1
(g1030
S'\x1c\x06'
p6265
tp6266
Rp6267
S'n02880940'
p6268
sg1
(g1030
S'\x1d\x06'
p6269
tp6270
Rp6271
S'n02839910'
p6272
sg1
(g1030
S'\x1e\x06'
p6273
tp6274
Rp6275
S'n04183329'
p6276
sg1
(g1030
S'\x1f\x06'
p6277
tp6278
Rp6279
S'n04531098'
p6280
sg1
(g1030
S' \x06'
p6281
tp6282
Rp6283
S'n02801525'
p6284
sg1
(g1030
S'!\x06'
p6285
tp6286
Rp6287
S'n03593526'
p6288
sg1
(g1030
S'"\x06'
p6289
tp6290
Rp6291
S'n02876657'
p6292
sg1
(g1030
S'#\x06'
p6293
tp6294
Rp6295
S'n03603722'
p6296
sg1
(g1030
S'$\x06'
p6297
tp6298
Rp6299
S'n04388743'
p6300
sg1
(g1030
S'%\x06'
p6301
tp6302
Rp6303
S'n04078574'
p6304
sg1
(g1030
S'&\x06'
p6305
tp6306
Rp6307
S'n03035510'
p6308
sg1
(g1030
S"'\x06"
p6309
tp6310
Rp6311
S'n03241496'
p6312
sg1
(g1030
S'(\x06'
p6313
tp6314
Rp6315
S'n03797390'
p6316
sg1
(g1030
S')\x06'
p6317
tp6318
Rp6319
S'n02946921'
p6320
sg1
(g1030
S'*\x06'
p6321
tp6322
Rp6323
S'n03438257'
p6324
sg1
(g1030
S'+\x06'
p6325
tp6326
Rp6327
S'n04060904'
p6328
sg1
(g1030
S',\x06'
p6329
tp6330
Rp6331
S'n03210683'
p6332
sg1
(g1030
S'-\x06'
p6333
tp6334
Rp6335
S'n03871083'
p6336
sg1
(g1030
S'.\x06'
p6337
tp6338
Rp6339
S'n02883344'
p6340
sg1
(g1030
S'/\x06'
p6341
tp6342
Rp6343
S'n04340750'
p6344
sg1
(g1030
S'0\x06'
p6345
tp6346
Rp6347
S'n03733644'
p6348
sg1
(g1030
S'1\x06'
p6349
tp6350
Rp6351
S'n02974697'
p6352
sg1
(g1030
S'2\x06'
p6353
tp6354
Rp6355
S'n03294048'
p6356
sg1
(g1030
S'3\x06'
p6357
tp6358
Rp6359
S'n04285146'
p6360
sg1
(g1030
S'4\x06'
p6361
tp6362
Rp6363
S'n03446832'
p6364
sg1
(g1030
S'5\x06'
p6365
tp6366
Rp6367
S'n02799897'
p6368
sg1
(g1030
S'6\x06'
p6369
tp6370
Rp6371
S'n03472232'
p6372
sg1
(g1030
S'7\x06'
p6373
tp6374
Rp6375
S'n02802721'
p6376
sg1
(g1030
S'8\x06'
p6377
tp6378
Rp6379
S'n03134853'
p6380
sg1
(g1030
S'9\x06'
p6381
tp6382
Rp6383
S'n04571292'
p6384
sg1
(g1030
S':\x06'
p6385
tp6386
Rp6387
S'n03414162'
p6388
sg1
(g1030
S';\x06'
p6389
tp6390
Rp6391
S'n03413828'
p6392
sg1
(g1030
S'<\x06'
p6393
tp6394
Rp6395
S'n04028315'
p6396
sg1
(g1030
S'=\x06'
p6397
tp6398
Rp6399
S'n02778669'
p6400
sg1
(g1030
S'>\x06'
p6401
tp6402
Rp6403
S'n03926148'
p6404
sg1
(g1030
S'?\x06'
p6405
tp6406
Rp6407
S'n02942699'
p6408
sg1
(g1030
S'@\x06'
p6409
tp6410
Rp6411
S'n03430959'
p6412
sg1
(g1030
S'A\x06'
p6413
tp6414
Rp6415
S'n03619396'
p6416
sg1
(g1030
S'B\x06'
p6417
tp6418
Rp6419
S'n04091097'
p6420
sg1
(g1030
S'C\x06'
p6421
tp6422
Rp6423
S'n03241093'
p6424
sg1
(g1030
S'D\x06'
p6425
tp6426
Rp6427
S'n04137444'
p6428
sg1
(g1030
S'E\x06'
p6429
tp6430
Rp6431
S'n04264914'
p6432
sg1
(g1030
S'F\x06'
p6433
tp6434
Rp6435
S'n03278248'
p6436
sg1
(g1030
S'G\x06'
p6437
tp6438
Rp6439
S'n02757462'
p6440
sg1
(g1030
S'H\x06'
p6441
tp6442
Rp6443
S'n04077430'
p6444
sg1
(g1030
S'I\x06'
p6445
tp6446
Rp6447
S'n04315948'
p6448
sg1
(g1030
S'J\x06'
p6449
tp6450
Rp6451
S'n03916720'
p6452
sg1
(g1030
S'K\x06'
p6453
tp6454
Rp6455
S'n03163973'
p6456
sg1
(g1030
S'L\x06'
p6457
tp6458
Rp6459
S'n04401088'
p6460
sg1
(g1030
S'M\x06'
p6461
tp6462
Rp6463
S'n04044498'
p6464
sg1
(g1030
S'N\x06'
p6465
tp6466
Rp6467
S'n02727825'
p6468
sg1
(g1030
S'O\x06'
p6469
tp6470
Rp6471
S'n03257586'
p6472
sg1
(g1030
S'P\x06'
p6473
tp6474
Rp6475
S'n04077734'
p6476
sg1
(g1030
S'Q\x06'
p6477
tp6478
Rp6479
S'n04447443'
p6480
sg1
(g1030
S'R\x06'
p6481
tp6482
Rp6483
S'n03128519'
p6484
sg1
(g1030
S'S\x06'
p6485
tp6486
Rp6487
S'n03113152'
p6488
sg1
(g1030
S'T\x06'
p6489
tp6490
Rp6491
S'n03714235'
p6492
sg1
(g1030
S'U\x06'
p6493
tp6494
Rp6495
S'n03100490'
p6496
sg1
(g1030
S'V\x06'
p6497
tp6498
Rp6499
S'n04524313'
p6500
sg1
(g1030
S'W\x06'
p6501
tp6502
Rp6503
S'n03125870'
p6504
sg1
(g1030
S'X\x06'
p6505
tp6506
Rp6507
S'n02686568'
p6508
sg1
(g1030
S'Y\x06'
p6509
tp6510
Rp6511
S'n03510583'
p6512
sg1
(g1030
S'Z\x06'
p6513
tp6514
Rp6515
S'n02691156'
p6516
sg1
(g1030
S'[\x06'
p6517
tp6518
Rp6519
S'n03666917'
p6520
sg1
(g1030
S'\\\x06'
p6521
tp6522
Rp6523
S'n04530566'
p6524
sg1
(g1030
S']\x06'
p6525
tp6526
Rp6527
S'n02858304'
p6528
sg1
(g1030
S'^\x06'
p6529
tp6530
Rp6531
S'n03790230'
p6532
sg1
(g1030
S'_\x06'
p6533
tp6534
Rp6535
S'n04158807'
p6536
sg1
(g1030
S'`\x06'
p6537
tp6538
Rp6539
S'n04244997'
p6540
sg1
(g1030
S'a\x06'
p6541
tp6542
Rp6543
S'n04128837'
p6544
sg1
(g1030
S'b\x06'
p6545
tp6546
Rp6547
S'n04128499'
p6548
sg1
(g1030
S'c\x06'
p6549
tp6550
Rp6551
S'n04194289'
p6552
sg1
(g1030
S'd\x06'
p6553
tp6554
Rp6555
S'n02965300'
p6556
sg1
(g1030
S'e\x06'
p6557
tp6558
Rp6559
S'n03896103'
p6560
sg1
(g1030
S'f\x06'
p6561
tp6562
Rp6563
S'n04552696'
p6564
sg1
(g1030
S'g\x06'
p6565
tp6566
Rp6567
S'n04348184'
p6568
sg1
(g1030
S'h\x06'
p6569
tp6570
Rp6571
S'n03764276'
p6572
sg1
(g1030
S'i\x06'
p6573
tp6574
Rp6575
S'n04099429'
p6576
sg1
(g1030
S'j\x06'
p6577
tp6578
Rp6579
S'n04235291'
p6580
sg1
(g1030
S'k\x06'
p6581
tp6582
Rp6583
S'n03678362'
p6584
sg1
(g1030
S'l\x06'
p6585
tp6586
Rp6587
S'n04019101'
p6588
sg1
(g1030
S'm\x06'
p6589
tp6590
Rp6591
S'n04468005'
p6592
sg1
(g1030
S'n\x06'
p6593
tp6594
Rp6595
S'n03896233'
p6596
sg1
(g1030
S'o\x06'
p6597
tp6598
Rp6599
S'n02924116'
p6600
sg1
(g1030
S'p\x06'
p6601
tp6602
Rp6603
S'n03091374'
p6604
sg1
(g1030
S'q\x06'
p6605
tp6606
Rp6607
S'n02755352'
p6608
sg1
(g1030
S'r\x06'
p6609
tp6610
Rp6611
S'n03664943'
p6612
sg1
(g1030
S's\x06'
p6613
tp6614
Rp6615
S'n03405265'
p6616
sg1
(g1030
S't\x06'
p6617
tp6618
Rp6619
S'n03405725'
p6620
sg1
(g1030
S'u\x06'
p6621
tp6622
Rp6623
S'n02766320'
p6624
sg1
(g1030
S'v\x06'
p6625
tp6626
Rp6627
S'n02821943'
p6628
sg1
(g1030
S'w\x06'
p6629
tp6630
Rp6631
S'n02818832'
p6632
sg1
(g1030
S'x\x06'
p6633
tp6634
Rp6635
S'n02933112'
p6636
sg1
(g1030
S'y\x06'
p6637
tp6638
Rp6639
S'n03015254'
p6640
sg1
(g1030
S'z\x06'
p6641
tp6642
Rp6643
S'n03636649'
p6644
sg1
(g1030
S'{\x06'
p6645
tp6646
Rp6647
S'n03842156'
p6648
sg1
(g1030
S'|\x06'
p6649
tp6650
Rp6651
S'n04161981'
p6652
sg1
(g1030
S'}\x06'
p6653
tp6654
Rp6655
S'n02828884'
p6656
sg1
(g1030
S'~\x06'
p6657
tp6658
Rp6659
S'n03001627'
p6660
sg1
(g1030
S'\x7f\x06'
p6661
tp6662
Rp6663
S'n03002210'
p6664
sg1
(g1030
S'\x80\x06'
p6665
tp6666
Rp6667
S'n04256520'
p6668
sg1
(g1030
S'\x81\x06'
p6669
tp6670
Rp6671
S'n03100346'
p6672
sg1
(g1030
S'\x82\x06'
p6673
tp6674
Rp6675
S'n04379243'
p6676
sg1
(g1030
S'\x83\x06'
p6677
tp6678
Rp6679
S'n04379964'
p6680
sg1
(g1030
S'\x84\x06'
p6681
tp6682
Rp6683
S'n04549122'
p6684
sg1
(g1030
S'\x85\x06'
p6685
tp6686
Rp6687
S'n04118021'
p6688
sg1
(g1030
S'\x86\x06'
p6689
tp6690
Rp6691
S'n03151077'
p6692
sg1
(g1030
S'\x87\x06'
p6693
tp6694
Rp6695
S'n06254669'
p6696
sg1
(g1030
S'\x88\x06'
p6697
tp6698
Rp6699
S'n06263609'
p6700
sg1
(g1030
S'\x89\x06'
p6701
tp6702
Rp6703
S'n06263369'
p6704
sg1
(g1030
S'\x8a\x06'
p6705
tp6706
Rp6707
S'n06595351'
p6708
sg1
(g1030
S'\x8b\x06'
p6709
tp6710
Rp6711
S'n04377057'
p6712
sg1
(g1030
S'\x8c\x06'
p6713
tp6714
Rp6715
S'n03078287'
p6716
sg1
(g1030
S'\x8d\x06'
p6717
tp6718
Rp6719
S'n04400289'
p6720
sg1
(g1030
S'\x8e\x06'
p6721
tp6722
Rp6723
S'n04341686'
p6724
sg1
(g1030
S'\x8f\x06'
p6725
tp6726
Rp6727
S'n02733524'
p6728
sg1
(g1030
S'\x90\x06'
p6729
tp6730
Rp6731
S'n02735688'
p6732
sg1
(g1030
S'\x91\x06'
p6733
tp6734
Rp6735
S'n02898711'
p6736
sg1
(g1030
S'\x92\x06'
p6737
tp6738
Rp6739
S'n02913152'
p6740
sg1
(g1030
S'\x93\x06'
p6741
tp6742
Rp6743
S'n03322570'
p6744
sg1
(g1030
S'\x94\x06'
p6745
tp6746
Rp6747
S'n03544360'
p6748
sg1
(g1030
S'\x95\x06'
p6749
tp6750
Rp6751
S'n04079244'
p6752
sg1
(g1030
S'\x96\x06'
p6753
tp6754
Rp6755
S'n04073948'
p6756
sg1
(g1030
S'\x97\x06'
p6757
tp6758
Rp6759
S'n03859280'
p6760
sg1
(g1030
S'\x98\x06'
p6761
tp6762
Rp6763
S'n04187547'
p6764
sg1
(g1030
S'\x99\x06'
p6765
tp6766
Rp6767
S'n03953416'
p6768
sg1
(g1030
S'\x9a\x06'
p6769
tp6770
Rp6771
S'n04210390'
p6772
sg1
(g1030
S'\x9b\x06'
p6773
tp6774
Rp6775
S'n04417809'
p6776
sg1
(g1030
S'\x9c\x06'
p6777
tp6778
Rp6779
S'n02914991'
p6780
sg1
(g1030
S'\x9d\x06'
p6781
tp6782
Rp6783
S'n03956922'
p6784
sg1
(g1030
S'\x9e\x06'
p6785
tp6786
Rp6787
S'n03316406'
p6788
sg1
(g1030
S'\x9f\x06'
p6789
tp6790
Rp6791
S'n03074380'
p6792
sg1
(g1030
S'\xa0\x06'
p6793
tp6794
Rp6795
S'n03171356'
p6796
sg1
(g1030
S'\xa1\x06'
p6797
tp6798
Rp6799
S'n03385557'
p6800
sg1
(g1030
S'\xa2\x06'
p6801
tp6802
Rp6803
S'n03297735'
p6804
sg1
(g1030
S'\xa3\x06'
p6805
tp6806
Rp6807
S'n03574555'
p6808
sg1
(g1030
S'\xa4\x06'
p6809
tp6810
Rp6811
S'n03907654'
p6812
sg1
(g1030
S'\xa5\x06'
p6813
tp6814
Rp6815
S'n03111690'
p6816
sg1
(g1030
S'\xa6\x06'
p6817
tp6818
Rp6819
S'n03953020'
p6820
sg1
(g1030
S'\xa7\x06'
p6821
tp6822
Rp6823
S'n03748162'
p6824
sg1
(g1030
S'\xa8\x06'
p6825
tp6826
Rp6827
S'n03722288'
p6828
sg1
(g1030
S'\xa9\x06'
p6829
tp6830
Rp6831
S'n04202417'
p6832
sg1
(g1030
S'\xaa\x06'
p6833
tp6834
Rp6835
S'n03546340'
p6836
sg1
(g1030
S'\xab\x06'
p6837
tp6838
Rp6839
S'n03259505'
p6840
sg1
(g1030
S'\xac\x06'
p6841
tp6842
Rp6843
S'n03638321'
p6844
sg1
(g1030
S'\xad\x06'
p6845
tp6846
Rp6847
S'n03743902'
p6848
sg1
(g1030
S'\xae\x06'
p6849
tp6850
Rp6851
S'n03839993'
p6852
sg1
(g1030
S'\xaf\x06'
p6853
tp6854
Rp6855
S'n02796623'
p6856
sg1
(g1030
S'\xb0\x06'
p6857
tp6858
Rp6859
S'n03327234'
p6860
sg1
(g1030
S'\xb1\x06'
p6861
tp6862
Rp6863
S'n04046974'
p6864
sg1
(g1030
S'\xb2\x06'
p6865
tp6866
Rp6867
S'n03454707'
p6868
sg1
(g1030
S'\xb3\x06'
p6869
tp6870
Rp6871
S'n03795580'
p6872
sg1
(g1030
S'\xb4\x06'
p6873
tp6874
Rp6875
S'n03221720'
p6876
sg1
(g1030
S'\xb5\x06'
p6877
tp6878
Rp6879
S'n03427296'
p6880
sg1
(g1030
S'\xb6\x06'
p6881
tp6882
Rp6883
S'n04191595'
p6884
sg1
(g1030
S'\xb7\x06'
p6885
tp6886
Rp6887
S'n04411264'
p6888
sg1
(g1030
S'\xb8\x06'
p6889
tp6890
Rp6891
S'n04217882'
p6892
sg1
(g1030
S'\xb9\x06'
p6893
tp6894
Rp6895
S'n04361095'
p6896
sg1
(g1030
S'\xba\x06'
p6897
tp6898
Rp6899
S'n03391770'
p6900
sg1
(g1030
S'\xbb\x06'
p6901
tp6902
Rp6903
S'n04038727'
p6904
sg1
(g1030
S'\xbc\x06'
p6905
tp6906
Rp6907
S'n04360501'
p6908
sg1
(g1030
S'\xbd\x06'
p6909
tp6910
Rp6911
S'n04460130'
p6912
sg1
(g1030
S'\xbe\x06'
p6913
tp6914
Rp6915
S'n03129123'
p6916
sg1
(g1030
S'\xbf\x06'
p6917
tp6918
Rp6919
S'n04007894'
p6920
sg1
(g1030
S'\xc0\x06'
p6921
tp6922
Rp6923
S'n04599396'
p6924
sg1
(g1030
S'\xc1\x06'
p6925
tp6926
Rp6927
S'n06589574'
p6928
sg1
(g1030
S'\xc2\x06'
p6929
tp6930
Rp6931
S'n04188643'
p6932
sg1
(g1030
S'\xc3\x06'
p6933
tp6934
Rp6935
S'n02856463'
p6936
sg1
(g1030
S'\xc4\x06'
p6937
tp6938
Rp6939
S'n03959936'
p6940
sg1
(g1030
S'\xc5\x06'
p6941
tp6942
Rp6943
S'n03309808'
p6944
sg1
(g1030
S'\xc6\x06'
p6945
tp6946
Rp6947
S'n03932670'
p6948
sg1
(g1030
S'\xc7\x06'
p6949
tp6950
Rp6951
S'n04459362'
p6952
sg1
(g1030
S'\xc8\x06'
p6953
tp6954
Rp6955
S'n03122748'
p6956
sg1
(g1030
S'\xc9\x06'
p6957
tp6958
Rp6959
S'n04605726'
p6960
sg1
(g1030
S'\xca\x06'
p6961
tp6962
Rp6963
S'n03590306'
p6964
sg1
(g1030
S'\xcb\x06'
p6965
tp6966
Rp6967
S'n04151940'
p6968
sg1
(g1030
S'\xcc\x06'
p6969
tp6970
Rp6971
S'n03380867'
p6972
sg1
(g1030
S'\xcd\x06'
p6973
tp6974
Rp6975
S'n04199027'
p6976
sg1
(g1030
S'\xce\x06'
p6977
tp6978
Rp6979
S'n02872752'
p6980
sg1
(g1030
S'\xcf\x06'
p6981
tp6982
Rp6983
S'n03050026'
p6984
sg1
(g1030
S'\xd0\x06'
p6985
tp6986
Rp6987
S'n03237639'
p6988
sg1
(g1030
S'\xd1\x06'
p6989
tp6990
Rp6991
S'n02785648'
p6992
sg1
(g1030
S'\xd2\x06'
p6993
tp6994
Rp6995
S'n02680110'
p6996
sg1
(g1030
S'\xd3\x06'
p6997
tp6998
Rp6999
S'n02820210'
p7000
sg1
(g1030
S'\xd4\x06'
p7001
tp7002
Rp7003
S'n03366823'
p7004
sg1
(g1030
S'\xd5\x06'
p7005
tp7006
Rp7007
S'n03727837'
p7008
sg1
(g1030
S'\xd6\x06'
p7009
tp7010
Rp7011
S'n03051540'
p7012
sg1
(g1030
S'\xd7\x06'
p7013
tp7014
Rp7015
S'n02756098'
p7016
sg1
(g1030
S'\xd8\x06'
p7017
tp7018
Rp7019
S'n03206718'
p7020
sg1
(g1030
S'\xd9\x06'
p7021
tp7022
Rp7023
S'n03476083'
p7024
sg1
(g1030
S'\xda\x06'
p7025
tp7026
Rp7027
S'n04015204'
p7028
sg1
(g1030
S'\xdb\x06'
p7029
tp7030
Rp7031
S'n02671780'
p7032
sg1
(g1030
S'\xdc\x06'
p7033
tp7034
Rp7035
S'n02827606'
p7036
sg1
(g1030
S'\xdd\x06'
p7037
tp7038
Rp7039
S'n03859495'
p7040
sg1
(g1030
S'\xde\x06'
p7041
tp7042
Rp7043
S'n03450516'
p7044
sg1
(g1030
S'\xdf\x06'
p7045
tp7046
Rp7047
S'n03419014'
p7048
sg1
(g1030
S'\xe0\x06'
p7049
tp7050
Rp7051
S'n04531873'
p7052
sg1
(g1030
S'\xe1\x06'
p7053
tp7054
Rp7055
S'n04371563'
p7056
sg1
(g1030
S'\xe2\x06'
p7057
tp7058
Rp7059
S'n04489008'
p7060
sg1
(g1030
S'\xe3\x06'
p7061
tp7062
Rp7063
S'n04143897'
p7064
sg1
(g1030
S'\xe4\x06'
p7065
tp7066
Rp7067
S'n03816005'
p7068
sg1
(g1030
S'\xe5\x06'
p7069
tp7070
Rp7071
S'n03815615'
p7072
sg1
(g1030
S'\xe6\x06'
p7073
tp7074
Rp7075
S'n04230808'
p7076
sg1
(g1030
S'\xe7\x06'
p7077
tp7078
Rp7079
S'n03863923'
p7080
sg1
(g1030
S'\xe8\x06'
p7081
tp7082
Rp7083
S'n03045337'
p7084
sg1
(g1030
S'\xe9\x06'
p7085
tp7086
Rp7087
S'n03057021'
p7088
sg1
(g1030
S'\xea\x06'
p7089
tp7090
Rp7091
S'n04049405'
p7092
sg1
(g1030
S'\xeb\x06'
p7093
tp7094
Rp7095
S'n04370048'
p7096
sg1
(g1030
S'\xec\x06'
p7097
tp7098
Rp7099
S'n04021028'
p7100
sg1
(g1030
S'\xed\x06'
p7101
tp7102
Rp7103
S'n04097866'
p7104
sg1
(g1030
S'\xee\x06'
p7105
tp7106
Rp7107
S'n04197391'
p7108
sg1
(g1030
S'\xef\x06'
p7109
tp7110
Rp7111
S'n04508163'
p7112
sg1
(g1030
S'\xf0\x06'
p7113
tp7114
Rp7115
S'n03490324'
p7116
sg1
(g1030
S'\xf1\x06'
p7117
tp7118
Rp7119
S'n03441112'
p7120
sg1
(g1030
S'\xf2\x06'
p7121
tp7122
Rp7123
S'n03502509'
p7124
sg1
(g1030
S'\xf3\x06'
p7125
tp7126
Rp7127
S'n03513137'
p7128
sg1
(g1030
S'\xf4\x06'
p7129
tp7130
Rp7131
S'n02954340'
p7132
sg1
(g1030
S'\xf5\x06'
p7133
tp7134
Rp7135
S'n03497657'
p7136
sg1
(g1030
S'\xf6\x06'
p7137
tp7138
Rp7139
S'n03381126'
p7140
sg1
(g1030
S'\xf7\x06'
p7141
tp7142
Rp7143
S'n03540267'
p7144
sg1
(g1030
S'\xf8\x06'
p7145
tp7146
Rp7147
S'n04434932'
p7148
sg1
(g1030
S'\xf9\x06'
p7149
tp7150
Rp7151
S'n04323819'
p7152
sg1
(g1030
S'\xfa\x06'
p7153
tp7154
Rp7155
S'n04509592'
p7156
sg1
(g1030
S'\xfb\x06'
p7157
tp7158
Rp7159
S'n03825080'
p7160
sg1
(g1030
S'\xfc\x06'
p7161
tp7162
Rp7163
S'n02728440'
p7164
sg1
(g1030
S'\xfd\x06'
p7165
tp7166
Rp7167
S'n04603872'
p7168
sg1
(g1030
S'\xfe\x06'
p7169
tp7170
Rp7171
S'n04596852'
p7172
sg1
(g1030
S'\xff\x06'
p7173
tp7174
Rp7175
S'n03236735'
p7176
sg1
(g1030
S'\x00\x07'
p7177
tp7178
Rp7179
S'n04014297'
p7180
sg1
(g1030
S'\x01\x07'
p7181
tp7182
Rp7183
S'n04192858'
p7184
sg1
(g1030
S'\x02\x07'
p7185
tp7186
Rp7187
S'n03959701'
p7188
sg1
(g1030
S'\x03\x07'
p7189
tp7190
Rp7191
S'n02740764'
p7192
sg1
(g1030
S'\x04\x07'
p7193
tp7194
Rp7195
S'n03513376'
p7196
sg1
(g1030
S'\x05\x07'
p7197
tp7198
Rp7199
S'n02955065'
p7200
sg1
(g1030
S'\x06\x07'
p7201
tp7202
Rp7203
S'n04105068'
p7204
sg1
(g1030
S'\x07\x07'
p7205
tp7206
Rp7207
S'n02851099'
p7208
sg1
(g1030
S'\x08\x07'
p7209
tp7210
Rp7211
S'n04589190'
p7212
sg1
(g1030
S'\t\x07'
p7213
tp7214
Rp7215
S'n04181718'
p7216
sg1
(g1030
S'\n\x07'
p7217
tp7218
Rp7219
S'n04151581'
p7220
sg1
(g1030
S'\x0b\x07'
p7221
tp7222
Rp7223
S'n02739668'
p7224
sg1
(g1030
S'\x0c\x07'
p7225
tp7226
Rp7227
S'n02862048'
p7228
sg1
(g1030
S'\r\x07'
p7229
tp7230
Rp7231
S'n03725035'
p7232
sg1
(g1030
S'\x0e\x07'
p7233
tp7234
Rp7235
S'n03314378'
p7236
sg1
(g1030
S'\x0f\x07'
p7237
tp7238
Rp7239
S'n04187061'
p7240
sg1
(g1030
S'\x10\x07'
p7241
tp7242
Rp7243
S'n04191943'
p7244
sg1
(g1030
S'\x11\x07'
p7245
tp7246
Rp7247
S'n02951843'
p7248
sg1
(g1030
S'\x12\x07'
p7249
tp7250
Rp7251
S'n04453910'
p7252
sg1
(g1030
S'\x13\x07'
p7253
tp7254
Rp7255
S'n02954938'
p7256
sg1
(g1030
S'\x14\x07'
p7257
tp7258
Rp7259
S'n03873064'
p7260
sg1
(g1030
S'\x15\x07'
p7261
tp7262
Rp7263
S'n03151500'
p7264
sg1
(g1030
S'\x16\x07'
p7265
tp7266
Rp7267
S'n03076708'
p7268
sg1
(g1030
S'\x17\x07'
p7269
tp7270
Rp7271
S'n03093574'
p7272
sg1
(g1030
S'\x18\x07'
p7273
tp7274
Rp7275
S'n03257877'
p7276
sg1
(g1030
S'\x19\x07'
p7277
tp7278
Rp7279
S'n02729837'
p7280
sg1
(g1030
S'\x1a\x07'
p7281
tp7282
Rp7283
S'n03251766'
p7284
sg1
(g1030
S'\x1b\x07'
p7285
tp7286
Rp7287
S'n03528263'
p7288
sg1
(g1030
S'\x1c\x07'
p7289
tp7290
Rp7291
S'n03620052'
p7292
sg1
(g1030
S'\x1d\x07'
p7293
tp7294
Rp7295
S'n03063338'
p7296
sg1
(g1030
S'\x1e\x07'
p7297
tp7298
Rp7299
S'n03862676'
p7300
sg1
(g1030
S'\x1f\x07'
p7301
tp7302
Rp7303
S'n04580493'
p7304
sg1
(g1030
S' \x07'
p7305
tp7306
Rp7307
S'n03252064'
p7308
sg1
(g1030
S'!\x07'
p7309
tp7310
Rp7311
S'n04580298'
p7312
sg1
(g1030
S'"\x07'
p7313
tp7314
Rp7315
S'n03672352'
p7316
sg1
(g1030
S'#\x07'
p7317
tp7318
Rp7319
S'n02807260'
p7320
sg1
(g1030
S'$\x07'
p7321
tp7322
Rp7323
S'n03302121'
p7324
sg1
(g1030
S'%\x07'
p7325
tp7326
Rp7327
S'n03982060'
p7328
sg1
(g1030
S'&\x07'
p7329
tp7330
Rp7331
S'n03169390'
p7332
sg1
(g1030
S"'\x07"
p7333
tp7334
Rp7335
S'n02681518'
p7336
sg1
(g1030
S'(\x07'
p7337
tp7338
Rp7339
S'n03597469'
p7340
sg1
(g1030
S')\x07'
p7341
tp7342
Rp7343
S'n03178782'
p7344
sg1
(g1030
S'*\x07'
p7345
tp7346
Rp7347
S'n03282591'
p7348
sg1
(g1030
S'+\x07'
p7349
tp7350
Rp7351
S'n03964744'
p7352
sg1
(g1030
S',\x07'
p7353
tp7354
Rp7355
S'n00022903'
p7356
sg1
(g1030
S'-\x07'
p7357
tp7358
Rp7359
S'n04550840'
p7360
sg1
(g1030
S'.\x07'
p7361
tp7362
Rp7363
S'n04597804'
p7364
sg1
(g1030
S'/\x07'
p7365
tp7366
Rp7367
S'n04381994'
p7368
sg1
(g1030
S'0\x07'
p7369
tp7370
Rp7371
S'n03153375'
p7372
sg1
(g1030
S'1\x07'
p7373
tp7374
Rp7375
S'n03133538'
p7376
sg1
(g1030
S'2\x07'
p7377
tp7378
Rp7379
S'n04362025'
p7380
sg1
(g1030
S'3\x07'
p7381
tp7382
Rp7383
S'n03536348'
p7384
sg1
(g1030
S'4\x07'
p7385
tp7386
Rp7387
S'n03961939'
p7388
sg1
(g1030
S'5\x07'
p7389
tp7390
Rp7391
S'n03892891'
p7392
sg1
(g1030
S'6\x07'
p7393
tp7394
Rp7395
S'n03932203'
p7396
sg1
(g1030
S'7\x07'
p7397
tp7398
Rp7399
S'n00002137'
p7400
sg1
(g1030
S'8\x07'
p7401
tp7402
Rp7403
S'n00024264'
p7404
sg1
(g1030
S'9\x07'
p7405
tp7406
Rp7407
S'n00027807'
p7408
sg1
(g1030
S':\x07'
p7409
tp7410
Rp7411
S'n13865483'
p7412
sg1
(g1030
S';\x07'
p7413
tp7414
Rp7415
S'n13899200'
p7416
sg1
(g1030
S'<\x07'
p7417
tp7418
Rp7419
S'n13899404'
p7420
sg1
(g1030
S'=\x07'
p7421
tp7422
Rp7423
S'n09289709'
p7424
sg1
(g1030
S'>\x07'
p7425
tp7426
Rp7427
S'n00033020'
p7428
sg1
(g1030
S'?\x07'
p7429
tp7430
Rp7431
S'n06793231'
p7432
sg1
(g1030
S'@\x07'
p7433
tp7434
Rp7435
S'n06791372'
p7436
sg1
(g1030
S'A\x07'
p7437
tp7438
Rp7439
S'n06873571'
p7440
sg1
(g1030
S'B\x07'
p7441
tp7442
Rp7443
S'n06874019'
p7444
sg1
(g1030
S'C\x07'
p7445
tp7446
Rp7447
S'n00031921'
p7448
sg1
(g1030
S'D\x07'
p7449
tp7450
Rp7451
S'n13809207'
p7452
s.