(dp0
S'n04336034'
p1
cnumpy.core.multiarray
scalar
p2
(cnumpy
dtype
p3
(S'u2'
p4
I0
I1
tp5
Rp6
(I3
S'<'
p7
NNNI-1
I-1
I0
tp8
bS'\xda\x05'
p9
tp10
Rp11
sS'n04381994'
p12
g2
(g6
S'/\x07'
p13
tp14
Rp15
sS'n01807496'
p16
g2
(g6
S'\x97\x01'
p17
tp18
Rp19
sS'n02037110'
p20
g2
(g6
S'\xb5\x01'
p21
tp22
Rp23
sS'n07749582'
p24
g2
(g6
S'@\x01'
p25
tp26
Rp27
sS'n04489008'
p28
g2
(g6
S'\xe2\x06'
p29
tp30
Rp31
sS'n03534580'
p32
g2
(g6
S'"\x03'
p33
tp34
Rp35
sS'n03513376'
p36
g2
(g6
S'\x04\x07'
p37
tp38
Rp39
sS'n03781244'
p40
g2
(g6
S'\xae\x02'
p41
tp42
Rp43
sS'n01674464'
p44
g2
(g6
S'1\x05'
p45
tp46
Rp47
sS'n02783161'
p48
g2
(g6
S'\x8b\x03'
p49
tp50
Rp51
sS'n03201208'
p52
g2
(g6
S';\x01'
p53
tp54
Rp55
sS'n00004475'
p56
g2
(g6
S'U\x04'
p57
tp58
Rp59
sS'n03127925'
p60
g2
(g6
S'\x82\x03'
p61
tp62
Rp63
sS'n02264363'
p64
g2
(g6
S'~\x02'
p65
tp66
Rp67
sS'n02507649'
p68
g2
(g6
S'\xc7\x04'
p69
tp70
Rp71
sS'n01968897'
p72
g2
(g3
(S'u1'
p73
I0
I1
tp74
Rp75
(I3
S'|'
p76
NNNI-1
I-1
I0
tp77
bS'\xe2'
p78
tp79
Rp80
sS'n02889425'
p81
g2
(g6
S'\xcc\x05'
p82
tp83
Rp84
sS'n02169497'
p85
g2
(g6
S'q\x02'
p86
tp87
Rp88
sS'n02536864'
p89
g2
(g6
S'\xc0\x01'
p90
tp91
Rp92
sS'n02274024'
p93
g2
(g6
S'w\x04'
p94
tp95
Rp96
sS'n02128757'
p97
g2
(g75
S'\x99'
p98
tp99
Rp100
sS'n02676261'
p101
g2
(g6
S'\x7f\x05'
p102
tp103
Rp104
sS'n13865483'
p105
g2
(g6
S':\x07'
p106
tp107
Rp108
sS'n04579432'
p109
g2
(g6
S'\xf6\x01'
p110
tp111
Rp112
sS'n07611358'
p113
g2
(g6
S'\x07\x04'
p114
tp115
Rp116
sS'n02871525'
p117
g2
(g6
S'\xc2\x02'
p118
tp119
Rp120
sS'n07555863'
p121
g2
(g6
S'\x1d\x04'
p122
tp123
Rp124
sS'n07714571'
p125
g2
(g6
S'\xe0\x02'
p126
tp127
Rp128
sS'n04370048'
p129
g2
(g6
S'\xeb\x06'
p130
tp131
Rp132
sS'n02437312'
p133
g2
(g75
S'y'
p134
tp135
Rp136
sS'n01796340'
p137
g2
(g6
S'\x92\x01'
p138
tp139
Rp140
sS'n04549122'
p141
g2
(g6
S'\x84\x06'
p142
tp143
Rp144
sS'n13133613'
p145
g2
(g6
S'I\x01'
p146
tp147
Rp148
sS'n04118021'
p149
g2
(g6
S'\x85\x06'
p150
tp151
Rp152
sS'n02514825'
p153
g2
(g6
S'^\x05'
p154
tp155
Rp156
sS'n04530566'
p157
g2
(g6
S'\\\x06'
p158
tp159
Rp160
sS'n00001740'
p161
g2
(g6
S'\xe9\x03'
p162
tp163
Rp164
sS'n04230808'
p165
g2
(g6
S'\xe6\x06'
p166
tp167
Rp168
sS'n04044716'
p169
g2
(g6
S'\x19\x02'
p170
tp171
Rp172
sS'n01871543'
p173
g2
(g6
S'\xf4\x04'
p174
tp175
Rp176
sS'n02089973'
p177
g2
(g75
S'\xcf'
p178
tp179
Rp180
sS'n02091244'
p181
g2
(g75
S'\xcc'
p182
tp183
Rp184
sS'n02098413'
p185
g2
(g75
S'8'
p186
tp187
Rp188
sS'n02090622'
p189
g2
(g75
S'i'
p190
tp191
Rp192
sS'n04275548'
p193
g2
(g6
S'X\x02'
p194
tp195
Rp196
sS'n02084071'
p197
g2
(g6
S'\x87\x04'
p198
tp199
Rp200
sS'n07714990'
p201
g2
(g6
S'\xe1\x02'
p202
tp203
Rp204
sS'n02321529'
p205
g2
(g6
S'\x92\x02'
p206
tp207
Rp208
sS'n01661592'
p209
g2
(g6
S'+\x05'
p210
tp211
Rp212
sS'n03089624'
p213
g2
(g6
S'\xc4\x02'
p214
tp215
Rp216
sS'n13040303'
p217
g2
(g6
S'}\x03'
p218
tp219
Rp220
sS'n10401829'
p221
g2
(g6
S'8\x04'
p222
tp223
Rp224
sS'n01739381'
p225
g2
(g6
S'\xe4\x01'
p226
tp227
Rp228
sS'n02751295'
p229
g2
(g6
S'\xa1\x05'
p230
tp231
Rp232
sS'n03125870'
p233
g2
(g6
S'W\x06'
p234
tp235
Rp236
sS'n02851099'
p237
g2
(g6
S'\x07\x07'
p238
tp239
Rp240
sS'n02855089'
p241
g2
(g6
S'\x82\x05'
p242
tp243
Rp244
sS'n02955065'
p245
g2
(g6
S'\x05\x07'
p246
tp247
Rp248
sS'n07583066'
p249
g2
(g6
S'-\x03'
p250
tp251
Rp252
sS'n02757462'
p253
g2
(g6
S'G\x06'
p254
tp255
Rp256
sS'n03257877'
p257
g2
(g6
S'\x18\x07'
p258
tp259
Rp260
sS'n04565375'
p261
g2
(g6
S'\xa2\x05'
p262
tp263
Rp264
sS'n09229709'
p265
g2
(g6
S'\xe0\x03'
p266
tp267
Rp268
sS'n04023962'
p269
g2
(g6
S'N\x03'
p270
tp271
Rp272
sS'n03216828'
p273
g2
(g6
S'\xcb\x02'
p274
tp275
Rp276
sS'n13044778'
p277
g2
(g6
S'n\x03'
p278
tp279
Rp280
sS'n03777568'
p281
g2
(g6
S'\x10\x01'
p282
tp283
Rp284
sS'n07566863'
p285
g2
(g6
S'\xef\x03'
p286
tp287
Rp288
sS'n03637318'
p289
g2
(g6
S'.\x03'
p290
tp291
Rp292
sS'n02018795'
p293
g2
(g6
S'\xb0\x01'
p294
tp295
Rp296
sS'n03344393'
p297
g2
(g75
S'\xeb'
p298
tp299
Rp300
sS'n04612504'
p301
g2
(g75
S'\xf0'
p302
tp303
Rp304
sS'n04183329'
p305
g2
(g6
S'\x1e\x06'
p306
tp307
Rp308
sS'n01698640'
p309
g2
(g6
S'\xdc\x01'
p310
tp311
Rp312
sS'n02504458'
p313
g2
(g75
S'\x18'
p314
tp315
Rp316
sS'n04418357'
p317
g2
(g6
S'\x87\x03'
p318
tp319
Rp320
sS'n02980441'
p321
g2
(g6
S'\xbd\x02'
p322
tp323
Rp324
sS'n02892767'
p325
g2
(g6
S'h\x03'
p326
tp327
Rp328
sS'n01756291'
p329
g2
(g6
S'\xed\x01'
p330
tp331
Rp332
sS'n04007894'
p333
g2
(g6
S'\xbf\x06'
p334
tp335
Rp336
sS'n12157056'
p337
g2
(g6
S'R\x04'
p338
tp339
Rp340
sS'n07584110'
p341
g2
(g6
S'L\x03'
p342
tp343
Rp344
sS'n01662784'
p345
g2
(g6
S'-\x05'
p346
tp347
Rp348
sS'n01753959'
p349
g2
(g6
S'L\x05'
p350
tp351
Rp352
sS'n03959936'
p353
g2
(g6
S'\xc4\x06'
p354
tp355
Rp356
sS'n02773037'
p357
g2
(g6
S'\x18\x06'
p358
tp359
Rp360
sS'n04091097'
p361
g2
(g6
S'B\x06'
p362
tp363
Rp364
sS'n03111690'
p365
g2
(g6
S'\xa5\x06'
p366
tp367
Rp368
sS'n01644373'
p369
g2
(g6
S'\xf4\x01'
p370
tp371
Rp372
sS'n04088797'
p373
g2
(g6
S'\xbf\x05'
p374
tp375
Rp376
sS'n04505470'
p377
g2
(g6
S' \x02'
p378
tp379
Rp380
sS'n03278248'
p381
g2
(g6
S'F\x06'
p382
tp383
Rp384
sS'n04486054'
p385
g2
(g6
S'\xa6\x02'
p386
tp387
Rp388
sS'n04254680'
p389
g2
(g75
S'\xde'
p390
tp391
Rp392
sS'n06873571'
p393
g2
(g6
S'A\x07'
p394
tp395
Rp396
sS'n01676755'
p397
g2
(g6
S'3\x05'
p398
tp399
Rp400
sS'n03887697'
p401
g2
(g6
S'm\x03'
p402
tp403
Rp404
sS'n03151500'
p405
g2
(g6
S'\x15\x07'
p406
tp407
Rp408
sS'n02948072'
p409
g2
(g6
S'O\x02'
p410
tp411
Rp412
sS'n04134632'
p413
g2
(g6
S'\x94\x05'
p414
tp415
Rp416
sS'n03241093'
p417
g2
(g6
S'C\x06'
p418
tp419
Rp420
sS'n02096177'
p421
g2
(g75
S'['
p422
tp423
Rp424
sS'n02114548'
p425
g2
(g75
S'f'
p426
tp427
Rp428
sS'n12267677'
p429
g2
(g6
S'G\x01'
p430
tp431
Rp432
sS'n03842156'
p433
g2
(g6
S'{\x06'
p434
tp435
Rp436
sS'n01700470'
p437
g2
(g6
S'=\x05'
p438
tp439
Rp440
sS'n02756098'
p441
g2
(g6
S'\xd7\x06'
p442
tp443
Rp444
sS'n03247620'
p445
g2
(g6
S'\x12\x04'
p446
tp447
Rp448
sS'n03743016'
p449
g2
(g6
S'\xcd\x02'
p450
tp451
Rp452
sS'n02801525'
p453
g2
(g6
S' \x06'
p454
tp455
Rp456
sS'n13052670'
p457
g2
(g6
S',\x03'
p458
tp459
Rp460
sS'n01689411'
p461
g2
(g6
S'6\x05'
p462
tp463
Rp464
sS'n02012849'
p465
g2
(g6
S'\xad\x01'
p466
tp467
Rp468
sS'n02106966'
p469
g2
(g6
S'\xa2\x04'
p470
tp471
Rp472
sS'n03868863'
p473
g2
(g6
S'\xfa\x01'
p474
tp475
Rp476
sS'n07565083'
p477
g2
(g6
S'#\x03'
p478
tp479
Rp480
sS'n04147495'
p481
g2
(g6
S'\x9b\x05'
p482
tp483
Rp484
sS'n03599486'
p485
g2
(g6
S'&\x01'
p486
tp487
Rp488
sS'n00027167'
p489
g2
(g6
S'C\x04'
p490
tp491
Rp492
sS'n04041544'
p493
g2
(g6
S'_\x03'
p494
tp495
Rp496
sS'n03896419'
p497
g2
(g6
S'\x12\x06'
p498
tp499
Rp500
sS'n04073948'
p501
g2
(g6
S'\x96\x06'
p502
tp503
Rp504
sS'n02113624'
p505
g2
(g75
S'j'
p506
tp507
Rp508
sS'n02279972'
p509
g2
(g6
S'\x83\x02'
p510
tp511
Rp512
sS'n03848348'
p513
g2
(g6
S'\xed\x05'
p514
tp515
Rp516
sS'n03476083'
p517
g2
(g6
S'\xd9\x06'
p518
tp519
Rp520
sS'n02232951'
p521
g2
(g6
S's\x04'
p522
tp523
Rp524
sS'n02876657'
p525
g2
(g6
S'"\x06'
p526
tp527
Rp528
sS'n02470899'
p529
g2
(g6
S'\xbc\x04'
p530
tp531
Rp532
sS'n02281787'
p533
g2
(g6
S'\x86\x02'
p534
tp535
Rp536
sS'n03775071'
p537
g2
(g6
S'g\x03'
p538
tp539
Rp540
sS'n01443537'
p541
g2
(g6
S'\xc2\x01'
p542
tp543
Rp544
sS'n02692877'
p545
g2
(g75
S'\xe8'
p546
tp547
Rp548
sS'n02456962'
p549
g2
(g6
S'\xee\x04'
p550
tp551
Rp552
sS'n02090721'
p553
g2
(g75
S'M'
p554
tp555
Rp556
sS'n07556970'
p557
g2
(g6
S'\x04\x04'
p558
tp559
Rp560
sS'n03314378'
p561
g2
(g6
S'\x0e\x07'
p562
tp563
Rp564
sS'n02086646'
p565
g2
(g75
S'\xc6'
p566
tp567
Rp568
sS'n02094433'
p569
g2
(g75
S';'
p570
tp571
Rp572
sS'n02076779'
p573
g2
(g6
S'\xd5\x04'
p574
tp575
Rp576
sS'n07800091'
p577
g2
(g6
S'\t\x04'
p578
tp579
Rp580
sS'n01855032'
p581
g2
(g6
S'\xa3\x01'
p582
tp583
Rp584
sS'n02120505'
p585
g2
(g75
S'C'
p586
tp587
Rp588
sS'n03621049'
p589
g2
(g6
S'\xf0\x05'
p590
tp591
Rp592
sS'n03000247'
p593
g2
(g6
S'\x86\x03'
p594
tp595
Rp596
sS'n02113335'
p597
g2
(g6
S'\x9c\x04'
p598
tp599
Rp600
sS'n02641379'
p601
g2
(g6
S'\xc9\x01'
p602
tp603
Rp604
sS'n03832673'
p605
g2
(g6
S'(\x02'
p606
tp607
Rp608
sS'n04235291'
p609
g2
(g6
S'j\x06'
p610
tp611
Rp612
sS'n01978287'
p613
g2
(g6
S'e\x02'
p614
tp615
Rp616
sS'n02088364'
p617
g2
(g75
S'\x84'
p618
tp619
Rp620
sS'n02099712'
p621
g2
(g75
S'\xb0'
p622
tp623
Rp624
sS'n03282591'
p625
g2
(g6
S'*\x07'
p626
tp627
Rp628
sS'n02942699'
p629
g2
(g6
S'?\x06'
p630
tp631
Rp632
sS'n02086346'
p633
g2
(g6
S'\xa9\x04'
p634
tp635
Rp636
sS'n04336792'
p637
g2
(g6
S'\xbd\x03'
p638
tp639
Rp640
sS'n03146219'
p641
g2
(g6
S'a\x03'
p642
tp643
Rp644
sS'n03445777'
p645
g2
(g6
S'\x18\x03'
p646
tp647
Rp648
sS'n04285146'
p649
g2
(g6
S'3\x06'
p650
tp651
Rp652
sS'n02128925'
p653
g2
(g75
S'\x1e'
p654
tp655
Rp656
sS'n02509815'
p657
g2
(g75
S'\x07'
p658
tp659
Rp660
sS'n02727825'
p661
g2
(g6
S'N\x06'
p662
tp663
Rp664
sS'n02128385'
p665
g2
(g75
S'U'
p666
tp667
Rp668
sS'n03982430'
p669
g2
(g6
S':\x01'
p670
tp671
Rp672
sS'n03733131'
p673
g2
(g6
S'V\x02'
p674
tp675
Rp676
sS'n03623198'
p677
g2
(g6
S'\x05\x03'
p678
tp679
Rp680
sS'n02088094'
p681
g2
(g75
S'b'
p682
tp683
Rp684
sS'n02002075'
p685
g2
(g6
S'\x19\x05'
p686
tp687
Rp688
sS'n02188699'
p689
g2
(g6
S'o\x04'
p690
tp691
Rp692
sS'n01983481'
p693
g2
(g6
S'i\x02'
p694
tp695
Rp696
sS'n03574555'
p697
g2
(g6
S'\xa3\x06'
p698
tp699
Rp700
sS'n01532829'
p701
g2
(g6
S'\x84\x01'
p702
tp703
Rp704
sS'n04028315'
p705
g2
(g6
S'<\x06'
p706
tp707
Rp708
sS'n02364520'
p709
g2
(g6
S'\xf1\x04'
p710
tp711
Rp712
sS'n04487081'
p713
g2
(g6
S'r\x03'
p714
tp715
Rp716
sS'n02971356'
p717
g2
(g6
S'\xed\x02'
p718
tp719
Rp720
sS'n03735637'
p721
g2
(g6
S'\x8f\x05'
p722
tp723
Rp724
sS'n01825930'
p725
g2
(g6
S'\x0e\x05'
p726
tp727
Rp728
sS'n11552386'
p729
g2
(g6
S'X\x04'
p730
tp731
Rp732
sS'n04456115'
p733
g2
(g6
S'R\x02'
p734
tp735
Rp736
sS'n01726692'
p737
g2
(g6
S'B\x05'
p738
tp739
Rp740
sS'n02167151'
p741
g2
(g6
S'o\x02'
p742
tp743
Rp744
sS'n01917289'
p745
g2
(g6
S'\x89\x02'
p746
tp747
Rp748
sS'n02095570'
p749
g2
(g75
S'\x98'
p750
tp751
Rp752
sS'n01986214'
p753
g2
(g6
S'l\x02'
p754
tp755
Rp756
sS'n03240683'
p757
g2
(g6
S'B\x03'
p758
tp759
Rp760
sS'n03001627'
p761
g2
(g6
S'~\x06'
p762
tp763
Rp764
sS'n04077430'
p765
g2
(g6
S'H\x06'
p766
tp767
Rp768
sS'n06595351'
p769
g2
(g6
S'\x8a\x06'
p770
tp771
Rp772
sS'n02818832'
p773
g2
(g6
S'w\x06'
p774
tp775
Rp776
sS'n07248320'
p777
g2
(g6
S'\x06\x03'
p778
tp779
Rp780
sS'n02843684'
p781
g2
(g6
S'G\x03'
p782
tp783
Rp784
sS'n02095412'
p785
g2
(g6
S'\x92\x04'
p786
tp787
Rp788
sS'n03930630'
p789
g2
(g6
S'\x19\x01'
p790
tp791
Rp792
sS'n04209239'
p793
g2
(g6
S'\xeb\x02'
p794
tp795
Rp796
sS'n04039381'
p797
g2
(g6
S'\\\x03'
p798
tp799
Rp800
sS'n02419796'
p801
g2
(g6
S'\xe4\x04'
p802
tp803
Rp804
sS'n09359803'
p805
g2
(g6
S'=\x04'
p806
tp807
Rp808
sS'n06254669'
p809
g2
(g6
S'\x87\x06'
p810
tp811
Rp812
sS'n04259630'
p813
g2
(g6
S'\x9d\x03'
p814
tp815
Rp816
sS'n15075141'
p817
g2
(g6
S'y\x03'
p818
tp819
Rp820
sS'n04325704'
p821
g2
(g6
S'\xe6\x03'
p822
tp823
Rp824
sS'n04508163'
p825
g2
(g6
S'\xef\x06'
p826
tp827
Rp828
sS'n01632047'
p829
g2
(g6
S'S\x05'
p830
tp831
Rp832
sS'n07747055'
p833
g2
(g6
S'$\x04'
p834
tp835
Rp836
sS'n01820546'
p837
g2
(g6
S'\x9b\x01'
p838
tp839
Rp840
sS'n01984695'
p841
g2
(g6
S'j\x02'
p842
tp843
Rp844
sS'n13899404'
p845
g2
(g6
S'<\x07'
p846
tp847
Rp848
sS'n03773035'
p849
g2
(g6
S'\xca\x05'
p850
tp851
Rp852
sS'n02014941'
p853
g2
(g6
S'\x1c\x05'
p854
tp855
Rp856
sS'n03485407'
p857
g2
(g6
S"'\x02"
p858
tp859
Rp860
sS'n03937543'
p861
g2
(g6
S'\x85\x03'
p862
tp863
Rp864
sS'n04552348'
p865
g2
(g75
S'\xe7'
p866
tp867
Rp868
sS'n07715103'
p869
g2
(g6
S'\xe2\x02'
p870
tp871
Rp872
sS'n02841315'
p873
g2
(g6
S'\x15\x02'
p874
tp875
Rp876
sS'n02274822'
p877
g2
(g6
S'y\x04'
p878
tp879
Rp880
sS'n04509417'
p881
g2
(g6
S'$\x01'
p882
tp883
Rp884
sS'n02105412'
p885
g2
(g75
S'\xb8'
p886
tp887
Rp888
sS'n03015254'
p889
g2
(g6
S'y\x06'
p890
tp891
Rp892
sS'n04517823'
p893
g2
(g6
S'\x9a\x02'
p894
tp895
Rp896
sS'n01873982'
p897
g2
(g6
S'\xf6\x04'
p898
tp899
Rp900
sS'n06263369'
p901
g2
(g6
S'\x89\x06'
p902
tp903
Rp904
sS'n04372370'
p905
g2
(g6
S'1\x02'
p906
tp907
Rp908
sS'n04326547'
p909
g2
(g6
S'\xd4\x02'
p910
tp911
Rp912
sS'n04562935'
p913
g2
(g6
S'\x1b\x03'
p914
tp915
Rp916
sS'n03907654'
p917
g2
(g6
S'\xa4\x06'
p918
tp919
Rp920
sS'n02672831'
p921
g2
(g75
S'\xdf'
p922
tp923
Rp924
sS'n07838233'
p925
g2
(g6
S'\xfa\x03'
p926
tp927
Rp928
sS'n02174001'
p929
g2
(g6
S's\x02'
p930
tp931
Rp932
sS'n03994008'
p933
g2
(g6
S'\x15\x04'
p934
tp935
Rp936
sS'n02776631'
p937
g2
(g6
S'\xc0\x02'
p938
tp939
Rp940
sS'n04451818'
p941
g2
(g6
S'\xe4\x05'
p942
tp943
Rp944
sS'n02092468'
p945
g2
(g6
S'\x90\x04'
p946
tp947
Rp948
sS'n03154073'
p949
g2
(g6
S'\xe6\x05'
p950
tp951
Rp952
sS'n07932039'
p953
g2
(g6
S'7\x03'
p954
tp955
Rp956
sS'n04501370'
p957
g2
(g6
S'\xd7\x02'
p958
tp959
Rp960
sS'n00007347'
p961
g2
(g6
S'/\x04'
p962
tp963
Rp964
sS'n03532672'
p965
g2
(g6
S'2\x02'
p966
tp967
Rp968
sS'n01976146'
p969
g2
(g6
S'g\x04'
p970
tp971
Rp972
sS'n07717070'
p973
g2
(g6
S'.\x04'
p974
tp975
Rp976
sS'n01482330'
p977
g2
(g6
S'X\x05'
p978
tp979
Rp980
sS'n03816005'
p981
g2
(g6
S'\xe4\x06'
p982
tp983
Rp984
sS'n02113186'
p985
g2
(g75
S'2'
p986
tp987
Rp988
sS'n01823013'
p989
g2
(g6
S'\r\x05'
p990
tp991
Rp992
sS'n02075927'
p993
g2
(g6
S'\xd3\x04'
p994
tp995
Rp996
sS'n07582609'
p997
g2
(g6
S'\xf8\x03'
p998
tp999
Rp1000
sS'n02017213'
p1001
g2
(g6
S'\xb6\x01'
p1002
tp1003
Rp1004
sS'n02453108'
p1005
g2
(g6
S'\xef\x04'
p1006
tp1007
Rp1008
sS'n03710721'
p1009
g2
(g6
S'\xd1\x03'
p1010
tp1011
Rp1012
sS'n03857828'
p1013
g2
(g6
S'f\x03'
p1014
tp1015
Rp1016
sS'n01616318'
p1017
g2
(g6
S'\x8f\x01'
p1018
tp1019
Rp1020
sS'n02363005'
p1021
g2
(g75
S'\xc3'
p1022
tp1023
Rp1024
sS'n01727646'
p1025
g2
(g6
S'C\x05'
p1026
tp1027
Rp1028
sS'n04125021'
p1029
g2
(g6
S'\xf1\x02'
p1030
tp1031
Rp1032
sS'n04197391'
p1033
g2
(g6
S'\xee\x06'
p1034
tp1035
Rp1036
sS'n04004475'
p1037
g2
(g6
S'\xb6\x05'
p1038
tp1039
Rp1040
sS'n04525038'
p1041
g2
(g6
S'\xc9\x03'
p1042
tp1043
Rp1044
sS'n03196324'
p1045
g2
(g6
S'\xb2\x05'
p1046
tp1047
Rp1048
sS'n01471682'
p1049
g2
(g6
S'\xb3\x04'
p1050
tp1051
Rp1052
sS'n07717410'
p1053
g2
(g6
S'\xe5\x02'
p1054
tp1055
Rp1056
sS'n02839910'
p1057
g2
(g6
S'\x1d\x06'
p1058
tp1059
Rp1060
sS'n03297735'
p1061
g2
(g6
S'\xa2\x06'
p1062
tp1063
Rp1064
sS'n03690938'
p1065
g2
(g6
S'~\x03'
p1066
tp1067
Rp1068
sS'n02109961'
p1069
g2
(g75
S'\x95'
p1070
tp1071
Rp1072
sS'n01844917'
p1073
g2
(g6
S'\x11\x05'
p1074
tp1075
Rp1076
sS'n04479046'
p1077
g2
(g6
S'9\x03'
p1078
tp1079
Rp1080
sS'n03339643'
p1081
g2
(g6
S'\x8a\x05'
p1082
tp1083
Rp1084
sS'n02025043'
p1085
g2
(g6
S' \x05'
p1086
tp1087
Rp1088
sS'n02891788'
p1089
g2
(g6
S'x\x05'
p1090
tp1091
Rp1092
sS'n03892891'
p1093
g2
(g6
S'5\x07'
p1094
tp1095
Rp1096
sS'n10072708'
p1097
g2
(g6
S'4\x04'
p1098
tp1099
Rp1100
sS'n02825657'
p1101
g2
(g6
S'\xa5\x03'
p1102
tp1103
Rp1104
sS'n01537134'
p1105
g2
(g6
S'\xff\x04'
p1106
tp1107
Rp1108
sS'n07590611'
p1109
g2
(g6
S'\x03\x03'
p1110
tp1111
Rp1112
sS'n03790230'
p1113
g2
(g6
S'^\x06'
p1114
tp1115
Rp1116
sS'n02974697'
p1117
g2
(g6
S'1\x06'
p1118
tp1119
Rp1120
sS'n09332890'
p1121
g2
(g6
S'n\x01'
p1122
tp1123
Rp1124
sS'n03988170'
p1125
g2
(g6
S'\xe0\x05'
p1126
tp1127
Rp1128
sS'n02006656'
p1129
g2
(g6
S'\xa8\x01'
p1130
tp1131
Rp1132
sS'n02415577'
p1133
g2
(g75
S'4'
p1134
tp1135
Rp1136
sS'n00022903'
p1137
g2
(g6
S',\x07'
p1138
tp1139
Rp1140
sS'n03237639'
p1141
g2
(g6
S'\xd0\x06'
p1142
tp1143
Rp1144
sS'n04141327'
p1145
g2
(g6
S')\x03'
p1146
tp1147
Rp1148
sS'n01729977'
p1149
g2
(g6
S'\xe0\x01'
p1150
tp1151
Rp1152
sS'n02817799'
p1153
g2
(g6
S'|\x05'
p1154
tp1155
Rp1156
sS'n04376876'
p1157
g2
(g6
S'\x13\x02'
p1158
tp1159
Rp1160
sS'n02011460'
p1161
g2
(g6
S'\xac\x01'
p1162
tp1163
Rp1164
sS'n03788365'
p1165
g2
(g6
S'T\x03'
p1166
tp1167
Rp1168
sS'n03709823'
p1169
g2
(g6
S'2\x03'
p1170
tp1171
Rp1172
sS'n02091467'
p1173
g2
(g75
S'?'
p1174
tp1175
Rp1176
sS'n01629276'
p1177
g2
(g6
S'Q\x05'
p1178
tp1179
Rp1180
sS'n02870880'
p1181
g2
(g6
S',\x01'
p1182
tp1183
Rp1184
sS'n04209133'
p1185
g2
(g6
S'd\x03'
p1186
tp1187
Rp1188
sS'n02444819'
p1189
g2
(g75
S'\xd4'
p1190
tp1191
Rp1192
sS'n02355477'
p1193
g2
(g6
S'\xf3\x04'
p1194
tp1195
Rp1196
sS'n03982060'
p1197
g2
(g6
S'%\x07'
p1198
tp1199
Rp1200
sS'n04263257'
p1201
g2
(g6
S'6\x03'
p1202
tp1203
Rp1204
sS'n03345487'
p1205
g2
(g6
S'\x17\x01'
p1206
tp1207
Rp1208
sS'n02129604'
p1209
g2
(g75
S'L'
p1210
tp1211
Rp1212
sS'n09288635'
p1213
g2
(g6
S'p\x01'
p1214
tp1215
Rp1216
sS'n01914163'
p1217
g2
(g6
S'}\x04'
p1218
tp1219
Rp1220
sS'n03614532'
p1221
g2
(g6
S'p\x05'
p1222
tp1223
Rp1224
sS'n03323703'
p1225
g2
(g6
S'\xcf\x05'
p1226
tp1227
Rp1228
sS'n12041446'
p1229
g2
(g6
S'[\x04'
p1230
tp1231
Rp1232
sS'n02797295'
p1233
g2
(g6
S'\x02\x01'
p1234
tp1235
Rp1236
sS'n02760855'
p1237
g2
(g6
S'\xa7\x05'
p1238
tp1239
Rp1240
sS'n11939491'
p1241
g2
(g6
S'e\x01'
p1242
tp1243
Rp1244
sS'n04543158'
p1245
g2
(g6
S'\x15\x06'
p1246
tp1247
Rp1248
sS'n00015388'
p1249
g2
(g6
S'_\x04'
p1250
tp1251
Rp1252
sS'n07745940'
p1253
g2
(g75
S'\xe5'
p1254
tp1255
Rp1256
sS'n03502509'
p1257
g2
(g6
S'\xf2\x06'
p1258
tp1259
Rp1260
sS'n02093859'
p1261
g2
(g75
S'k'
p1262
tp1263
Rp1264
sS'n02107312'
p1265
g2
(g75
S'\xbb'
p1266
tp1267
Rp1268
sS'n03484083'
p1269
g2
(g6
S'\x08\x06'
p1270
tp1271
Rp1272
sS'n02708093'
p1273
g2
(g6
S'\n\x02'
p1274
tp1275
Rp1276
sS'n01930112'
p1277
g2
(g6
S'\x8b\x02'
p1278
tp1279
Rp1280
sS'n02226429'
p1281
g2
(g6
S'w\x02'
p1282
tp1283
Rp1284
sS'n03642806'
p1285
g2
(g75
S'\xe4'
p1286
tp1287
Rp1288
sS'n02395406'
p1289
g2
(g75
S'\x93'
p1290
tp1291
Rp1292
sS'n03391770'
p1293
g2
(g6
S'\xba\x06'
p1294
tp1295
Rp1296
sS'n04532106'
p1297
g2
(g6
S'\x16\x03'
p1298
tp1299
Rp1300
sS'n03684823'
p1301
g2
(g6
S'\x0b\x06'
p1302
tp1303
Rp1304
sS'n02733524'
p1305
g2
(g6
S'\x8f\x06'
p1306
tp1307
Rp1308
sS'n02105641'
p1309
g2
(g75
S'\x1d'
p1310
tp1311
Rp1312
sS'n02092002'
p1313
g2
(g75
S'\x15'
p1314
tp1315
Rp1316
sS'n03970156'
p1317
g2
(g6
S'z\x01'
p1318
tp1319
Rp1320
sS'n01692333'
p1321
g2
(g6
S'\xd6\x01'
p1322
tp1323
Rp1324
sS'n02100236'
p1325
g2
(g75
S'\x86'
p1326
tp1327
Rp1328
sS'n03976657'
p1329
g2
(g6
S'\x9b\x03'
p1330
tp1331
Rp1332
sS'n04235860'
p1333
g2
(g6
S'\xaf\x03'
p1334
tp1335
Rp1336
sS'n02788689'
p1337
g2
(g6
S'\x00\x06'
p1338
tp1339
Rp1340
sS'n01916925'
p1341
g2
(g6
S'\x7f\x04'
p1342
tp1343
Rp1344
sS'n04443257'
p1345
g2
(g6
S'\xc6\x02'
p1346
tp1347
Rp1348
sS'n03868242'
p1349
g2
(g6
S"'\x01"
p1350
tp1351
Rp1352
sS'n02120079'
p1353
g2
(g75
S'\x9f'
p1354
tp1355
Rp1356
sS'n02492035'
p1357
g2
(g75
S'\x8e'
p1358
tp1359
Rp1360
sS'n01685439'
p1361
g2
(g6
S'4\x05'
p1362
tp1363
Rp1364
sS'n02002556'
p1365
g2
(g6
S'\xa6\x01'
p1366
tp1367
Rp1368
sS'n04252077'
p1369
g2
(g6
S' \x01'
p1370
tp1371
Rp1372
sS'n02966687'
p1373
g2
(g6
S'{\x03'
p1374
tp1375
Rp1376
sS'n02642107'
p1377
g2
(g6
S'h\x05'
p1378
tp1379
Rp1380
sS'n02100583'
p1381
g2
(g75
S'Z'
p1382
tp1383
Rp1384
sS'n02728440'
p1385
g2
(g6
S'\xfc\x06'
p1386
tp1387
Rp1388
sS'n01530575'
p1389
g2
(g6
S'\x82\x01'
p1390
tp1391
Rp1392
sS'n04606251'
p1393
g2
(g75
S'\xf8'
p1394
tp1395
Rp1396
sS'n02274259'
p1397
g2
(g6
S'x\x04'
p1398
tp1399
Rp1400
sS'n02085782'
p1401
g2
(g75
S'c'
p1402
tp1403
Rp1404
sS'n04194289'
p1405
g2
(g6
S'c\x06'
p1406
tp1407
Rp1408
sS'n04143897'
p1409
g2
(g6
S'\xe3\x06'
p1410
tp1411
Rp1412
sS'n03322940'
p1413
g2
(g6
S'\xb5\x05'
p1414
tp1415
Rp1416
sS'n03446832'
p1417
g2
(g6
S'4\x06'
p1418
tp1419
Rp1420
sS'n03896103'
p1421
g2
(g6
S'e\x06'
p1422
tp1423
Rp1424
sS'n04548362'
p1425
g2
(g6
S'\xa0\x03'
p1426
tp1427
Rp1428
sS'n04192858'
p1429
g2
(g6
S'\x01\x07'
p1430
tp1431
Rp1432
sS'n02114367'
p1433
g2
(g75
S'\xcd'
p1434
tp1435
Rp1436
sS'n03594945'
p1437
g2
(g6
S'\r\x01'
p1438
tp1439
Rp1440
sS'n07871810'
p1441
g2
(g6
S'&\x03'
p1442
tp1443
Rp1444
sS'n03953416'
p1445
g2
(g6
S'\x99\x06'
p1446
tp1447
Rp1448
sS'n03691459'
p1449
g2
(g6
S'\xfc\x01'
p1450
tp1451
Rp1452
sS'n03472232'
p1453
g2
(g6
S'6\x06'
p1454
tp1455
Rp1456
sS'n01944390'
p1457
g2
(g6
S'\x8d\x02'
p1458
tp1459
Rp1460
sS'n03792782'
p1461
g2
(g75
S'\xff'
p1462
tp1463
Rp1464
sS'n04120489'
p1465
g2
(g6
S'\xf8\x02'
p1466
tp1467
Rp1468
sS'n03859280'
p1469
g2
(g6
S'\x97\x06'
p1470
tp1471
Rp1472
sS'n04399382'
p1473
g2
(g6
S'\x12\x03'
p1474
tp1475
Rp1476
sS'n07809368'
p1477
g2
(g6
S'\xf6\x03'
p1478
tp1479
Rp1480
sS'n02097047'
p1481
g2
(g75
S'{'
p1482
tp1483
Rp1484
sS'n03447721'
p1485
g2
(g6
S'Q\x01'
p1486
tp1487
Rp1488
sS'n03800933'
p1489
g2
(g6
S'o\x05'
p1490
tp1491
Rp1492
sS'n03862676'
p1493
g2
(g6
S'\x1e\x07'
p1494
tp1495
Rp1496
sS'n02152991'
p1497
g2
(g6
S'\xab\x04'
p1498
tp1499
Rp1500
sS'n03664675'
p1501
g2
(g6
S'\xab\x05'
p1502
tp1503
Rp1504
sS'n03991062'
p1505
g2
(g6
S'F\x03'
p1506
tp1507
Rp1508
sS'n14939900'
p1509
g2
(g6
S'\x1a\x04'
p1510
tp1511
Rp1512
sS'n03880531'
p1513
g2
(g6
S'\xf3\x05'
p1514
tp1515
Rp1516
sS'n04243941'
p1517
g2
(g6
S'\xb7\x05'
p1518
tp1519
Rp1520
sS'n03154446'
p1521
g2
(g6
S'\xe5\x05'
p1522
tp1523
Rp1524
sS'n02979186'
p1525
g2
(g6
S'\xa1\x03'
p1526
tp1527
Rp1528
sS'n02110958'
p1529
g2
(g75
S'\x8f'
p1530
tp1531
Rp1532
sS'n03929660'
p1533
g2
(g6
S'?\x02'
p1534
tp1535
Rp1536
sS'n07892512'
p1537
g2
(g6
S'\x1e\x03'
p1538
tp1539
Rp1540
sS'n03043958'
p1541
g2
(g6
S'\xd0\x05'
p1542
tp1543
Rp1544
sS'n03584829'
p1545
g2
(g6
S'\x93\x02'
p1546
tp1547
Rp1548
sS'n02958343'
p1549
g2
(g6
S'\r\x06'
p1550
tp1551
Rp1552
sS'n07713895'
p1553
g2
(g6
S'+\x04'
p1554
tp1555
Rp1556
sS'n04370456'
p1557
g2
(g6
S'E\x03'
p1558
tp1559
Rp1560
sS'n09193705'
p1561
g2
(g6
S'i\x01'
p1562
tp1563
Rp1564
sS'n14940386'
p1565
g2
(g6
S'\x1b\x04'
p1566
tp1567
Rp1568
sS'n07739125'
p1569
g2
(g6
S'!\x04'
p1570
tp1571
Rp1572
sS'n03967562'
p1573
g2
(g6
S'}\x01'
p1574
tp1575
Rp1576
sS'n03544360'
p1577
g2
(g6
S'\x94\x06'
p1578
tp1579
Rp1580
sS'n03063599'
p1581
g2
(g6
S'\xe4\x03'
p1582
tp1583
Rp1584
sS'n08578706'
p1585
g2
(g6
S'E\x04'
p1586
tp1587
Rp1588
sS'n04133789'
p1589
g2
(g6
S'\xef\x02'
p1590
tp1591
Rp1592
sS'n04125853'
p1593
g2
(g6
S'\xd3\x05'
p1594
tp1595
Rp1596
sS'n02133161'
p1597
g2
(g75
S'\xa3'
p1598
tp1599
Rp1600
sS'n02106030'
p1601
g2
(g75
S'|'
p1602
tp1603
Rp1604
sS'n02324045'
p1605
g2
(g6
S'\xb8\x04'
p1606
tp1607
Rp1608
sS'n03574816'
p1609
g2
(g6
S'\x8c\x05'
p1610
tp1611
Rp1612
sS'n03039947'
p1613
g2
(g6
S'\xf6\x05'
p1614
tp1615
Rp1616
sS'n02099849'
p1617
g2
(g75
S'\x8b'
p1618
tp1619
Rp1620
sS'n04459362'
p1621
g2
(g6
S'\xc7\x06'
p1622
tp1623
Rp1624
sS'n04367480'
p1625
g2
(g6
S'<\x03'
p1626
tp1627
Rp1628
sS'n03790512'
p1629
g2
(g6
S'\x0e\x06'
p1630
tp1631
Rp1632
sS'n02640242'
p1633
g2
(g6
S'\xc8\x01'
p1634
tp1635
Rp1636
sS'n04357314'
p1637
g2
(g6
S'*\x03'
p1638
tp1639
Rp1640
sS'n02951843'
p1641
g2
(g6
S'\x11\x07'
p1642
tp1643
Rp1644
sS'n02138441'
p1645
g2
(g75
S'#'
p1646
tp1647
Rp1648
sS'n02974003'
p1649
g2
(g6
S'3\x02'
p1650
tp1651
Rp1652
sS'n02412080'
p1653
g2
(g75
S'Q'
p1654
tp1655
Rp1656
sS'n01696633'
p1657
g2
(g6
S'?\x05'
p1658
tp1659
Rp1660
sS'n04542943'
p1661
g2
(g6
S'\x99\x02'
p1662
tp1663
Rp1664
sS'n03759954'
p1665
g2
(g6
S'\xfd\x01'
p1666
tp1667
Rp1668
sS'n02113978'
p1669
g2
(g75
S'.'
p1670
tp1671
Rp1672
sS'n02504013'
p1673
g2
(g75
S'\xc2'
p1674
tp1675
Rp1676
sS'n11675842'
p1677
g2
(g6
S'M\x04'
p1678
tp1679
Rp1680
sS'n02088238'
p1681
g2
(g75
S'\xa1'
p1682
tp1683
Rp1684
sS'n02099601'
p1685
g2
(g75
S'}'
p1686
tp1687
Rp1688
sS'n02747177'
p1689
g2
(g6
S'\xf0\x02'
p1690
tp1691
Rp1692
sS'n03000684'
p1693
g2
(g6
S'~\x01'
p1694
tp1695
Rp1696
sS'n02869837'
p1697
g2
(g6
S'%\x03'
p1698
tp1699
Rp1700
sS'n03101986'
p1701
g2
(g6
S'\xf1\x05'
p1702
tp1703
Rp1704
sS'n03508101'
p1705
g2
(g6
S'\x8b\x05'
p1706
tp1707
Rp1708
sS'n02494079'
p1709
g2
(g75
S'\\'
p1710
tp1711
Rp1712
sS'n03908618'
p1713
g2
(g6
S'J\x03'
p1714
tp1715
Rp1716
sS'n04264628'
p1717
g2
(g6
S'Z\x03'
p1718
tp1719
Rp1720
sS'n02022684'
p1721
g2
(g6
S'\x1e\x05'
p1722
tp1723
Rp1724
sS'n02099029'
p1725
g2
(g6
S'\x8f\x04'
p1726
tp1727
Rp1728
sS'n01622779'
p1729
g2
(g6
S'\x90\x01'
p1730
tp1731
Rp1732
sS'n03179701'
p1733
g2
(g6
S'9\x01'
p1734
tp1735
Rp1736
sS'n03400231'
p1737
g2
(g6
S'\x9f\x02'
p1738
tp1739
Rp1740
sS'n02512053'
p1741
g2
(g6
S'U\x05'
p1742
tp1743
Rp1744
sS'n01846331'
p1745
g2
(g6
S'\x14\x05'
p1746
tp1747
Rp1748
sS'n03160309'
p1749
g2
(g6
S'\xd0\x02'
p1750
tp1751
Rp1752
sS'n02965300'
p1753
g2
(g6
S'd\x06'
p1754
tp1755
Rp1756
sS'n01317541'
p1757
g2
(g6
S'\x85\x04'
p1758
tp1759
Rp1760
sS'n07802026'
p1761
g2
(g6
S'0\x03'
p1762
tp1763
Rp1764
sS'n03228016'
p1765
g2
(g6
S'}\x05'
p1766
tp1767
Rp1768
sS'n02102040'
p1769
g2
(g75
S'\x05'
p1770
tp1771
Rp1772
sS'n02486410'
p1773
g2
(g75
S'\x89'
p1774
tp1775
Rp1776
sS'n02111277'
p1777
g2
(g75
S'<'
p1778
tp1779
Rp1780
sS'n04069276'
p1781
g2
(g6
S'\xc9\x05'
p1782
tp1783
Rp1784
sS'n02927161'
p1785
g2
(g6
S'\xc3\x02'
p1786
tp1787
Rp1788
sS'n03536348'
p1789
g2
(g6
S'3\x07'
p1790
tp1791
Rp1792
sS'n02916936'
p1793
g2
(g6
S'A\x03'
p1794
tp1795
Rp1796
sS'n03126707'
p1797
g2
(g6
S'!\x02'
p1798
tp1799
Rp1800
sS'n02342885'
p1801
g2
(g75
S'\x9d'
p1802
tp1803
Rp1804
sS'n02782093'
p1805
g2
(g75
S'\xe9'
p1806
tp1807
Rp1808
sS'n01847000'
p1809
g2
(g6
S'\xa2\x01'
p1810
tp1811
Rp1812
sS'n03251766'
p1813
g2
(g6
S'\x1a\x07'
p1814
tp1815
Rp1816
sS'n02802426'
p1817
g2
(g6
S'\x8c\x03'
p1818
tp1819
Rp1820
sS'n04136333'
p1821
g2
(g6
S'\xaa\x03'
p1822
tp1823
Rp1824
sS'n02112826'
p1825
g2
(g6
S'\x9b\x04'
p1826
tp1827
Rp1828
sS'n03035510'
p1829
g2
(g6
S'&\x06'
p1830
tp1831
Rp1832
sS'n01769347'
p1833
g2
(g6
S'b\x04'
p1834
tp1835
Rp1836
sS'n04131690'
p1837
g2
(g6
S'\xb8\x03'
p1838
tp1839
Rp1840
sS'n01752165'
p1841
g2
(g6
S'K\x05'
p1842
tp1843
Rp1844
sS'n01677366'
p1845
g2
(g6
S'\xd0\x01'
p1846
tp1847
Rp1848
sS'n04482393'
p1849
g2
(g6
S'#\x01'
p1850
tp1851
Rp1852
sS'n04147183'
p1853
g2
(g75
S'\xdd'
p1854
tp1855
Rp1856
sS'n02111129'
p1857
g2
(g75
S'\x85'
p1858
tp1859
Rp1860
sS'n02055803'
p1861
g2
(g6
S'(\x05'
p1862
tp1863
Rp1864
sS'n03769722'
p1865
g2
(g6
S'\x0f\x06'
p1866
tp1867
Rp1868
sS'n02924116'
p1869
g2
(g6
S'o\x06'
p1870
tp1871
Rp1872
sS'n03724870'
p1873
g2
(g6
S'\r\x03'
p1874
tp1875
Rp1876
sS'n01728920'
p1877
g2
(g6
S'\xde\x01'
p1878
tp1879
Rp1880
sS'n07615774'
p1881
g2
(g6
S'\xc8\x03'
p1882
tp1883
Rp1884
sS'n04243546'
p1885
g2
(g6
S'-\x02'
p1886
tp1887
Rp1888
sS'n04328186'
p1889
g2
(g6
S'\x10\x02'
p1890
tp1891
Rp1892
sS'n04344873'
p1893
g2
(g6
S'7\x01'
p1894
tp1895
Rp1896
sS'n02226183'
p1897
g2
(g6
S'q\x04'
p1898
tp1899
Rp1900
sS'n03290653'
p1901
g2
(g6
S'<\x01'
p1902
tp1903
Rp1904
sS'n03782006'
p1905
g2
(g6
S'e\x03'
p1906
tp1907
Rp1908
sS'n09428293'
p1909
g2
(g6
S'o\x01'
p1910
tp1911
Rp1912
sS'n01663401'
p1913
g2
(g6
S'.\x05'
p1914
tp1915
Rp1916
sS'n00024264'
p1917
g2
(g6
S'8\x07'
p1918
tp1919
Rp1920
sS'n04509592'
p1921
g2
(g6
S'\xfa\x06'
p1922
tp1923
Rp1924
sS'n01495701'
p1925
g2
(g6
S'[\x05'
p1926
tp1927
Rp1928
sS'n02329401'
p1929
g2
(g6
S'\xf0\x04'
p1930
tp1931
Rp1932
sS'n07800740'
p1933
g2
(g6
S'\n\x04'
p1934
tp1935
Rp1936
sS'n07742313'
p1937
g2
(g6
S'>\x01'
p1938
tp1939
Rp1940
sS'n01482071'
p1941
g2
(g6
S'W\x05'
p1942
tp1943
Rp1944
sS'n01805801'
p1945
g2
(g6
S'\xb0\x04'
p1946
tp1947
Rp1948
sS'n02120997'
p1949
g2
(g6
S'\xcd\x04'
p1950
tp1951
Rp1952
sS'n03961711'
p1953
g2
(g6
S'\xdb\x02'
p1954
tp1955
Rp1956
sS'n03272010'
p1957
g2
(g6
S'Z\x01'
p1958
tp1959
Rp1960
sS'n02105251'
p1961
g2
(g75
S'\xd0'
p1962
tp1963
Rp1964
sS'n03959701'
p1965
g2
(g6
S'\x02\x07'
p1966
tp1967
Rp1968
sS'n02834778'
p1969
g2
(g6
S'\x06\x06'
p1970
tp1971
Rp1972
sS'n02121620'
p1973
g2
(g6
S'\xce\x04'
p1974
tp1975
Rp1976
sS'n02552171'
p1977
g2
(g6
S'd\x05'
p1978
tp1979
Rp1980
sS'n11669921'
p1981
g2
(g6
S'Z\x04'
p1982
tp1983
Rp1984
sS'n03459775'
p1985
g2
(g6
S'\xd5\x02'
p1986
tp1987
Rp1988
sS'n02124623'
p1989
g2
(g6
S'\xcf\x04'
p1990
tp1991
Rp1992
sS'n01534433'
p1993
g2
(g6
S'\x85\x01'
p1994
tp1995
Rp1996
sS'n03710637'
p1997
g2
(g6
S'\x0e\x03'
p1998
tp1999
Rp2000
sS'n03207941'
p2001
g2
(g6
S'\x9b\x02'
p2002
tp2003
Rp2004
sS'n02109047'
p2005
g2
(g75
S'\x11'
p2006
tp2007
Rp2008
sS'n02056570'
p2009
g2
(g6
S'\xb8\x01'
p2010
tp2011
Rp2012
sS'n03640988'
p2013
g2
(g6
S'\xd8\x05'
p2014
tp2015
Rp2016
sS'n04229816'
p2017
g2
(g6
S'\x08\x03'
p2018
tp2019
Rp2020
sS'n04149813'
p2021
g2
(g6
S'\xd9\x02'
p2022
tp2023
Rp2024
sS'n02088839'
p2025
g2
(g6
S'\x98\x04'
p2026
tp2027
Rp2028
sS'n04429376'
p2029
g2
(g6
S'4\x01'
p2030
tp2031
Rp2032
sS'n02101556'
p2033
g2
(g75
S'^'
p2034
tp2035
Rp2036
sS'n01943899'
p2037
g2
(g6
S'\x8c\x02'
p2038
tp2039
Rp2040
sS'n03393324'
p2041
g2
(g6
S'y\x05'
p2042
tp2043
Rp2044
sS'n03484931'
p2045
g2
(g6
S'\x9f\x05'
p2046
tp2047
Rp2048
sS'n12768682'
p2049
g2
(g6
S'L\x01'
p2050
tp2051
Rp2052
sS'n02097298'
p2053
g2
(g75
S'm'
p2054
tp2055
Rp2056
sS'n03871628'
p2057
g2
(g6
S'\x99\x03'
p2058
tp2059
Rp2060
sS'n01695681'
p2061
g2
(g6
S';\x05'
p2062
tp2063
Rp2064
sS'n01694178'
p2065
g2
(g6
S'\xd8\x01'
p2066
tp2067
Rp2068
sS'n03379051'
p2069
g2
(g6
S'\x10\x03'
p2070
tp2071
Rp2072
sS'n03538406'
p2073
g2
(g6
S'%\x01'
p2074
tp2075
Rp2076
sS'n04590129'
p2077
g2
(g6
S'\x88\x03'
p2078
tp2079
Rp2080
sS'n03995372'
p2081
g2
(g6
S'u\x01'
p2082
tp2083
Rp2084
sS'n02666196'
p2085
g2
(g6
S'#\x02'
p2086
tp2087
Rp2088
sS'n04033995'
p2089
g2
(g6
S'\xd0\x03'
p2090
tp2091
Rp2092
sS'n02834397'
p2093
g2
(g6
S'\xad\x03'
p2094
tp2095
Rp2096
sS'n03888605'
p2097
g2
(g6
S'\xe2\x03'
p2098
tp2099
Rp2100
sS'n03729826'
p2101
g2
(g6
S'\xd8\x03'
p2102
tp2103
Rp2104
sS'n02093754'
p2105
g2
(g75
S'\xd2'
p2106
tp2107
Rp2108
sS'n03042490'
p2109
g2
(g6
S'\xc9\x02'
p2110
tp2111
Rp2112
sS'n04532670'
p2113
g2
(g6
S'\xaa\x02'
p2114
tp2115
Rp2116
sS'n07768694'
p2117
g2
(g6
S'F\x01'
p2118
tp2119
Rp2120
sS'n02807260'
p2121
g2
(g6
S'#\x07'
p2122
tp2123
Rp2124
sS'n03080497'
p2125
g2
(g6
S'\x98\x05'
p2126
tp2127
Rp2128
sS'n01693334'
p2129
g2
(g6
S'\xd7\x01'
p2130
tp2131
Rp2132
sS'n02112018'
p2133
g2
(g75
S'v'
p2134
tp2135
Rp2136
sS'n13135832'
p2137
g2
(g6
S'O\x04'
p2138
tp2139
Rp2140
sS'n03563967'
p2141
g2
(g6
S'\xe3\x05'
p2142
tp2143
Rp2144
sS'n04110955'
p2145
g2
(g6
S'\xc1\x05'
p2146
tp2147
Rp2148
sS'n09626238'
p2149
g2
(g6
S'6\x04'
p2150
tp2151
Rp2152
sS'n02607072'
p2153
g2
(g6
S'\xc5\x01'
p2154
tp2155
Rp2156
sS'n04404412'
p2157
g2
(g6
S'\xb0\x03'
p2158
tp2159
Rp2160
sS'n03709206'
p2161
g2
(g6
S'\x9c\x05'
p2162
tp2163
Rp2164
sS'n03840681'
p2165
g2
(g6
S'_\x01'
p2166
tp2167
Rp2168
sS'n02317335'
p2169
g2
(g75
S'\xe1'
p2170
tp2171
Rp2172
sS'n04021798'
p2173
g2
(g6
S'\xbe\x05'
p2174
tp2175
Rp2176
sS'n03046257'
p2177
g2
(g6
S'\x93\x05'
p2178
tp2179
Rp2180
sS'n02112497'
p2181
g2
(g6
S'\x9d\x04'
p2182
tp2183
Rp2184
sS'n02089555'
p2185
g2
(g6
S'\x99\x04'
p2186
tp2187
Rp2188
sS'n03125729'
p2189
g2
(g6
S')\x01'
p2190
tp2191
Rp2192
sS'n02414578'
p2193
g2
(g6
S'\xe5\x04'
p2194
tp2195
Rp2196
sS'n02062017'
p2197
g2
(g6
S'\xd1\x04'
p2198
tp2199
Rp2200
sS'n03385557'
p2201
g2
(g6
S'\xa1\x06'
p2202
tp2203
Rp2204
sS'n02484322'
p2205
g2
(g6
S'\xbf\x04'
p2206
tp2207
Rp2208
sS'n02807133'
p2209
g2
(g6
S'\x11\x03'
p2210
tp2211
Rp2212
sS'n03101156'
p2213
g2
(g6
S'\xf2\x05'
p2214
tp2215
Rp2216
sS'n03743902'
p2217
g2
(g6
S'\xad\x06'
p2218
tp2219
Rp2220
sS'n04228054'
p2221
g2
(g6
S'N\x02'
p2222
tp2223
Rp2224
sS'n04317420'
p2225
g2
(g6
S'\xfe\x05'
p2226
tp2227
Rp2228
sS'n04118776'
p2229
g2
(g6
S'\x07\x02'
p2230
tp2231
Rp2232
sS'n04040759'
p2233
g2
(g6
S';\x02'
p2234
tp2235
Rp2236
sS'n03851341'
p2237
g2
(g6
S'\xc6\x05'
p2238
tp2239
Rp2240
sS'n02280649'
p2241
g2
(g6
S'\x84\x02'
p2242
tp2243
Rp2244
sS'n02760429'
p2245
g2
(g6
S'\xa6\x05'
p2246
tp2247
Rp2248
sS'n01776313'
p2249
g2
(g6
S'b\x02'
p2250
tp2251
Rp2252
sS'n03002210'
p2253
g2
(g6
S'\x7f\x06'
p2254
tp2255
Rp2256
sS'n07810907'
p2257
g2
(g6
S'\xf7\x03'
p2258
tp2259
Rp2260
sS'n03785016'
p2261
g2
(g6
S'\x15\x01'
p2262
tp2263
Rp2264
sS'n01697457'
p2265
g2
(g6
S'\xdb\x01'
p2266
tp2267
Rp2268
sS'n03956922'
p2269
g2
(g6
S'\x9d\x06'
p2270
tp2271
Rp2272
sS'n03239726'
p2273
g2
(g6
S'\xea\x05'
p2274
tp2275
Rp2276
sS'n04361095'
p2277
g2
(g6
S'\xb9\x06'
p2278
tp2279
Rp2280
sS'n02606384'
p2281
g2
(g6
S'g\x05'
p2282
tp2283
Rp2284
sS'n09289709'
p2285
g2
(g6
S'=\x07'
p2286
tp2287
Rp2288
sS'n09246464'
p2289
g2
(g6
S'g\x01'
p2290
tp2291
Rp2292
sS'n03916031'
p2293
g2
(g6
S's\x03'
p2294
tp2295
Rp2296
sS'n04046974'
p2297
g2
(g6
S'\xb1\x06'
p2298
tp2299
Rp2300
sS'n03381126'
p2301
g2
(g6
S'\xf6\x06'
p2302
tp2303
Rp2304
sS'n07920052'
p2305
g2
(g6
S'\xb3\x03'
p2306
tp2307
Rp2308
sS'n01682714'
p2309
g2
(g6
S'\xd1\x01'
p2310
tp2311
Rp2312
sS'n04435653'
p2313
g2
(g6
S'\x0c\x03'
p2314
tp2315
Rp2316
sS'n02691156'
p2317
g2
(g6
S'Z\x06'
p2318
tp2319
Rp2320
sS'n01632458'
p2321
g2
(g6
S'\xf1\x01'
p2322
tp2323
Rp2324
sS'n03481172'
p2325
g2
(g6
S'w\x01'
p2326
tp2327
Rp2328
sS'n04525305'
p2329
g2
(g6
S'.\x02'
p2330
tp2331
Rp2332
sS'n01982650'
p2333
g2
(g6
S'i\x04'
p2334
tp2335
Rp2336
sS'n02091134'
p2337
g2
(g75
S'\x14'
p2338
tp2339
Rp2340
sS'n04272054'
p2341
g2
(g6
S'\x9a\x05'
p2342
tp2343
Rp2344
sS'n01843065'
p2345
g2
(g6
S'\xa0\x01'
p2346
tp2347
Rp2348
sS'n04560804'
p2349
g2
(g6
S'3\x03'
p2350
tp2351
Rp2352
sS'n02950826'
p2353
g2
(g6
S'\x1b\x02'
p2354
tp2355
Rp2356
sS'n02096585'
p2357
g2
(g75
S'q'
p2358
tp2359
Rp2360
sS'n01751748'
p2361
g2
(g6
S'\xea\x01'
p2362
tp2363
Rp2364
sS'n03854065'
p2365
g2
(g6
S'M\x01'
p2366
tp2367
Rp2368
sS'n07930864'
p2369
g2
(g6
S'[\x03'
p2370
tp2371
Rp2372
sS'n07881800'
p2373
g2
(g6
S'\x0b\x04'
p2374
tp2375
Rp2376
sS'n02514041'
p2377
g2
(g6
S'\xbf\x01'
p2378
tp2379
Rp2380
sS'n02690373'
p2381
g2
(g75
S'\xe6'
p2382
tp2383
Rp2384
sS'n03450230'
p2385
g2
(g6
S'\x8f\x03'
p2386
tp2387
Rp2388
sS'n02086079'
p2389
g2
(g75
S'E'
p2390
tp2391
Rp2392
sS'n03636248'
p2393
g2
(g6
S'\xd7\x05'
p2394
tp2395
Rp2396
sS'n04330267'
p2397
g2
(g6
S'\x04\x02'
p2398
tp2399
Rp2400
sS'n07614500'
p2401
g2
(g6
S'\xce\x03'
p2402
tp2403
Rp2404
sS'n02107683'
p2405
g2
(g75
S'V'
p2406
tp2407
Rp2408
sS'n02396427'
p2409
g2
(g75
S'N'
p2410
tp2411
Rp2412
sS'n02000954'
p2413
g2
(g6
S'\x18\x05'
p2414
tp2415
Rp2416
sS'n02096051'
p2417
g2
(g75
S'!'
p2418
tp2419
Rp2420
sS'n10565667'
p2421
g2
(g6
S'\xd6\x03'
p2422
tp2423
Rp2424
sS'n01795545'
p2425
g2
(g6
S'\x91\x01'
p2426
tp2427
Rp2428
sS'n09421951'
p2429
g2
(g6
S'l\x01'
p2430
tp2431
Rp2432
sS'n02093991'
p2433
g2
(g75
S'~'
p2434
tp2435
Rp2436
sS'n03649909'
p2437
g2
(g6
S'v\x01'
p2438
tp2439
Rp2440
sS'n02802721'
p2441
g2
(g6
S'7\x06'
p2442
tp2443
Rp2444
sS'n03457902'
p2445
g2
(g6
S'\xac\x02'
p2446
tp2447
Rp2448
sS'n02872752'
p2449
g2
(g6
S'\xce\x06'
p2450
tp2451
Rp2452
sS'n01692864'
p2453
g2
(g6
S'8\x05'
p2454
tp2455
Rp2456
sS'n02493509'
p2457
g2
(g75
S'%'
p2458
tp2459
Rp2460
sS'n03575691'
p2461
g2
(g6
S'\x8d\x05'
p2462
tp2463
Rp2464
sS'n07679356'
p2465
g2
(g6
S'\xf1\x03'
p2466
tp2467
Rp2468
sS'n03657121'
p2469
g2
(g6
S'\xdc\x03'
p2470
tp2471
Rp2472
sS'n04139859'
p2473
g2
(g6
S'\x1a\x06'
p2474
tp2475
Rp2476
sS'n03441112'
p2477
g2
(g6
S'\xf1\x06'
p2478
tp2479
Rp2480
sS'n02097474'
p2481
g2
(g75
S'\x9e'
p2482
tp2483
Rp2484
sS'n02862048'
p2485
g2
(g6
S'\x0c\x07'
p2486
tp2487
Rp2488
sS'n12144580'
p2489
g2
(g6
S'K\x01'
p2490
tp2491
Rp2492
sS'n02021795'
p2493
g2
(g6
S'%\x05'
p2494
tp2495
Rp2496
sS'n00020090'
p2497
g2
(g6
S'\xec\x03'
p2498
tp2499
Rp2500
sS'n06874185'
p2501
g2
(g6
S']\x03'
p2502
tp2503
Rp2504
sS'n04254777'
p2505
g2
(g6
S'\xda\x03'
p2506
tp2507
Rp2508
sS'n03393912'
p2509
g2
(g6
S'\x00\x01'
p2510
tp2511
Rp2512
sS'n07753275'
p2513
g2
(g6
S'B\x01'
p2514
tp2515
Rp2516
sS'n04199027'
p2517
g2
(g6
S'\xcd\x06'
p2518
tp2519
Rp2520
sS'n01703569'
p2521
g2
(g6
S'>\x05'
p2522
tp2523
Rp2524
sS'n02025239'
p2525
g2
(g6
S'\xb1\x01'
p2526
tp2527
Rp2528
sS'n03764736'
p2529
g2
(g6
S'k\x03'
p2530
tp2531
Rp2532
sS'n09366317'
p2533
g2
(g6
S'<\x04'
p2534
tp2535
Rp2536
sS'n01729322'
p2537
g2
(g6
S'\xdf\x01'
p2538
tp2539
Rp2540
sS'n02104882'
p2541
g2
(g6
S'\xa0\x04'
p2542
tp2543
Rp2544
sS'n03598930'
p2545
g2
(g6
S'\xc3\x03'
p2546
tp2547
Rp2548
sS'n03902125'
p2549
g2
(g6
S'K\x03'
p2550
tp2551
Rp2552
sS'n01667778'
p2553
g2
(g6
S'\xcd\x01'
p2554
tp2555
Rp2556
sS'n03717622'
p2557
g2
(g6
S'\xfb\x02'
p2558
tp2559
Rp2560
sS'n04277352'
p2561
g2
(g6
S'\x07\x03'
p2562
tp2563
Rp2564
sS'n04015204'
p2565
g2
(g6
S'\xda\x06'
p2566
tp2567
Rp2568
sS'n03122748'
p2569
g2
(g6
S'\xc8\x06'
p2570
tp2571
Rp2572
sS'n01968315'
p2573
g2
(g6
S'\x83\x04'
p2574
tp2575
Rp2576
sS'n03128519'
p2577
g2
(g6
S'R\x06'
p2578
tp2579
Rp2580
sS'n02058221'
p2581
g2
(g6
S'\xb9\x01'
p2582
tp2583
Rp2584
sS'n03796401'
p2585
g2
(g6
S'\x1c\x01'
p2586
tp2587
Rp2588
sS'n04400289'
p2589
g2
(g6
S'\x8d\x06'
p2590
tp2591
Rp2592
sS'n01855672'
p2593
g2
(g6
S'\xa4\x01'
p2594
tp2595
Rp2596
sS'n02914991'
p2597
g2
(g6
S'\x9c\x06'
p2598
tp2599
Rp2600
sS'n03763968'
p2601
g2
(g6
S'b\x03'
p2602
tp2603
Rp2604
sS'n03016953'
p2605
g2
(g6
S'/\x01'
p2606
tp2607
Rp2608
sS'n03733644'
p2609
g2
(g6
S'0\x06'
p2610
tp2611
Rp2612
sS'n02091831'
p2613
g2
(g75
S'B'
p2614
tp2615
Rp2616
sS'n01768244'
p2617
g2
(g6
S'Y\x02'
p2618
tp2619
Rp2620
sS'n03497657'
p2621
g2
(g6
S'\xf5\x06'
p2622
tp2623
Rp2624
sS'n02113712'
p2625
g2
(g75
S'1'
p2626
tp2627
Rp2628
sS'n13083586'
p2629
g2
(g6
S'W\x04'
p2630
tp2631
Rp2632
sS'n03294833'
p2633
g2
(g6
S'\xf8\x05'
p2634
tp2635
Rp2636
sS'n03530642'
p2637
g2
(g6
S'\xda\x02'
p2638
tp2639
Rp2640
sS'n02009912'
p2641
g2
(g6
S'\xaa\x01'
p2642
tp2643
Rp2644
sS'n02231487'
p2645
g2
(g6
S'y\x02'
p2646
tp2647
Rp2648
sS'n04598582'
p2649
g2
(g6
S'{\x05'
p2650
tp2651
Rp2652
sS'n03956157'
p2653
g2
(g6
S'\xb5\x02'
p2654
tp2655
Rp2656
sS'n02938886'
p2657
g2
(g6
S'\xaf\x05'
p2658
tp2659
Rp2660
sS'n03476684'
p2661
g2
(g6
S'E\x02'
p2662
tp2663
Rp2664
sS'n03733805'
p2665
g2
(g6
S'\xb2\x03'
p2666
tp2667
Rp2668
sS'n02108089'
p2669
g2
(g75
S'\x82'
p2670
tp2671
Rp2672
sS'n07929519'
p2673
g2
(g6
S'\x0c\x04'
p2674
tp2675
Rp2676
sS'n02090475'
p2677
g2
(g6
S'\x97\x04'
p2678
tp2679
Rp2680
sS'n04014297'
p2681
g2
(g6
S'\x00\x07'
p2682
tp2683
Rp2684
sS'n02016956'
p2685
g2
(g6
S'$\x05'
p2686
tp2687
Rp2688
sS'n01560105'
p2689
g2
(g6
S'\x01\x05'
p2690
tp2691
Rp2692
sS'n03063338'
p2693
g2
(g6
S'\x1d\x07'
p2694
tp2695
Rp2696
sS'n03888257'
p2697
g2
(g6
S'\xae\x03'
p2698
tp2699
Rp2700
sS'n02965783'
p2701
g2
(g6
S'@\x02'
p2702
tp2703
Rp2704
sS'n01693783'
p2705
g2
(g6
S'9\x05'
p2706
tp2707
Rp2708
sS'n04151940'
p2709
g2
(g6
S'\xcb\x06'
p2710
tp2711
Rp2712
sS'n03662601'
p2713
g2
(g75
S'\xee'
p2714
tp2715
Rp2716
sS'n03032252'
p2717
g2
(g6
S'\xb7\x02'
p2718
tp2719
Rp2720
sS'n03992509'
p2721
g2
(g6
S'6\x02'
p2722
tp2723
Rp2724
sS'n04217718'
p2725
g2
(g6
S'\xd5\x05'
p2726
tp2727
Rp2728
sS'n02009229'
p2729
g2
(g6
S'\xab\x01'
p2730
tp2731
Rp2732
sS'n02066707'
p2733
g2
(g6
S'\xd8\x04'
p2734
tp2735
Rp2736
sS'n03803284'
p2737
g2
(g6
S'L\x02'
p2738
tp2739
Rp2740
sS'n01608432'
p2741
g2
(g6
S'\x8d\x01'
p2742
tp2743
Rp2744
sS'n01942177'
p2745
g2
(g6
S'\x82\x04'
p2746
tp2747
Rp2748
sS'n03113152'
p2749
g2
(g6
S'S\x06'
p2750
tp2751
Rp2752
sS'n01661818'
p2753
g2
(g6
S'/\x05'
p2754
tp2755
Rp2756
sS'n03593526'
p2757
g2
(g6
S'!\x06'
p2758
tp2759
Rp2760
sS'n03252064'
p2761
g2
(g6
S' \x07'
p2762
tp2763
Rp2764
sS'n02268853'
p2765
g2
(g6
S'\x80\x02'
p2766
tp2767
Rp2768
sS'n04467099'
p2769
g2
(g6
S'\x14\x06'
p2770
tp2771
Rp2772
sS'n03915437'
p2773
g2
(g6
S'r\x05'
p2774
tp2775
Rp2776
sS'n04181718'
p2777
g2
(g6
S'\t\x07'
p2778
tp2779
Rp2780
sS'n02415435'
p2781
g2
(g6
S'\xe6\x04'
p2782
tp2783
Rp2784
sS'n01698434'
p2785
g2
(g6
S'@\x05'
p2786
tp2787
Rp2788
sS'n04238763'
p2789
g2
(g6
S'%\x02'
p2790
tp2791
Rp2792
sS'n02091635'
p2793
g2
(g75
S'\x1f'
p2794
tp2795
Rp2796
sS'n06791372'
p2797
g2
(g6
S'@\x07'
p2798
tp2799
Rp2800
sS'n04403638'
p2801
g2
(g6
S'\xa0\x05'
p2802
tp2803
Rp2804
sS'n02356798'
p2805
g2
(g75
S'5'
p2806
tp2807
Rp2808
sS'n07705711'
p2809
g2
(g6
S'\x1f\x04'
p2810
tp2811
Rp2812
sS'n02534734'
p2813
g2
(g6
S']\x05'
p2814
tp2815
Rp2816
sS'n07873807'
p2817
g2
(g6
S'\xb4\x03'
p2818
tp2819
Rp2820
sS'n02364673'
p2821
g2
(g75
S'e'
p2822
tp2823
Rp2824
sS'n04379243'
p2825
g2
(g6
S'\x82\x06'
p2826
tp2827
Rp2828
sS'n00019613'
p2829
g2
(g6
S'\x16\x04'
p2830
tp2831
Rp2832
sS'n02277742'
p2833
g2
(g6
S'\x82\x02'
p2834
tp2835
Rp2836
sS'n01820348'
p2837
g2
(g6
S'\x0b\x05'
p2838
tp2839
Rp2840
sS'n04380533'
p2841
g2
(g6
S'0\x01'
p2842
tp2843
Rp2844
sS'n07860988'
p2845
g2
(g6
S'`\x03'
p2846
tp2847
Rp2848
sS'n03100490'
p2849
g2
(g6
S'U\x06'
p2850
tp2851
Rp2852
sS'n02108551'
p2853
g2
(g75
S'n'
p2854
tp2855
Rp2856
sS'n02134971'
p2857
g2
(g6
S'\xc8\x04'
p2858
tp2859
Rp2860
sS'n01831712'
p2861
g2
(g6
S'\x0f\x05'
p2862
tp2863
Rp2864
sS'n03699975'
p2865
g2
(g6
S'\xac\x05'
p2866
tp2867
Rp2868
sS'n04187547'
p2869
g2
(g6
S'\x98\x06'
p2870
tp2871
Rp2872
sS'n12998815'
p2873
g2
(g6
S'\x91\x03'
p2874
tp2875
Rp2876
sS'n02727426'
p2877
g2
(g6
S'\xb0\x02'
p2878
tp2879
Rp2880
sS'n04586932'
p2881
g2
(g6
S'w\x05'
p2882
tp2883
Rp2884
sS'n03096960'
p2885
g2
(g6
S'\xba\x05'
p2886
tp2887
Rp2888
sS'n03940256'
p2889
g2
(g6
S'\xd2\x05'
p2890
tp2891
Rp2892
sS'n04553703'
p2893
g2
(g6
S'\x8a\x03'
p2894
tp2895
Rp2896
sS'n03788195'
p2897
g2
(g6
S'\xb3\x02'
p2898
tp2899
Rp2900
sS'n02454379'
p2901
g2
(g75
S'\xb2'
p2902
tp2903
Rp2904
sS'n03419014'
p2905
g2
(g6
S'\xdf\x06'
p2906
tp2907
Rp2908
sS'n02190166'
p2909
g2
(g6
S'u\x02'
p2910
tp2911
Rp2912
sS'n03926148'
p2913
g2
(g6
S'>\x06'
p2914
tp2915
Rp2916
sS'n03825080'
p2917
g2
(g6
S'\xfb\x06'
p2918
tp2919
Rp2920
sS'n03291819'
p2921
g2
(g6
S'o\x03'
p2922
tp2923
Rp2924
sS'n07836838'
p2925
g2
(g6
S'\xb9\x03'
p2926
tp2927
Rp2928
sS'n04264914'
p2929
g2
(g6
S'E\x06'
p2930
tp2931
Rp2932
sS'n03738472'
p2933
g2
(g6
S'\xb9\x05'
p2934
tp2935
Rp2936
sS'n14974264'
p2937
g2
(g6
S'\x18\x04'
p2938
tp2939
Rp2940
sS'n03206908'
p2941
g2
(g6
S'\x1b\x06'
p2942
tp2943
Rp2944
sS'n07734744'
p2945
g2
(g6
S'\xea\x02'
p2946
tp2947
Rp2948
sS'n04377057'
p2949
g2
(g6
S'\x8b\x06'
p2950
tp2951
Rp2952
sS'n04078574'
p2953
g2
(g6
S'%\x06'
p2954
tp2955
Rp2956
sS'n07697313'
p2957
g2
(g6
S'\xe1\x03'
p2958
tp2959
Rp2960
sS'n04310018'
p2961
g2
(g6
S'\x07\x01'
p2962
tp2963
Rp2964
sS'n02104523'
p2965
g2
(g6
S'\x9f\x04'
p2966
tp2967
Rp2968
sS'n01940736'
p2969
g2
(g6
S'\x81\x04'
p2970
tp2971
Rp2972
sS'n02814533'
p2973
g2
(g6
S'\n\x01'
p2974
tp2975
Rp2976
sS'n07697537'
p2977
g2
(g6
S'u\x03'
p2978
tp2979
Rp2980
sS'n09214581'
p2981
g2
(g6
S'J\x04'
p2982
tp2983
Rp2984
sS'n01852861'
p2985
g2
(g6
S'\x15\x05'
p2986
tp2987
Rp2988
sS'n09366017'
p2989
g2
(g6
S';\x04'
p2990
tp2991
Rp2992
sS'n07680932'
p2993
g2
(g6
S'\xf4\x03'
p2994
tp2995
Rp2996
sS'n02108422'
p2997
g2
(g75
S'\x8c'
p2998
tp2999
Rp3000
sS'n01871875'
p3001
g2
(g6
S'\xf5\x04'
p3002
tp3003
Rp3004
sS'n09399592'
p3005
g2
(g6
S'k\x01'
p3006
tp3007
Rp3008
sS'n01531178'
p3009
g2
(g6
S'\x83\x01'
p3010
tp3011
Rp3012
sS'n04162706'
p3013
g2
(g6
S'M\x02'
p3014
tp3015
Rp3016
sS'n02642644'
p3017
g2
(g6
S'i\x05'
p3018
tp3019
Rp3020
sS'n02033041'
p3021
g2
(g6
S'\xb4\x01'
p3022
tp3023
Rp3024
sS'n03594734'
p3025
g2
(g6
S'\xec\x02'
p3026
tp3027
Rp3028
sS'n07710007'
p3029
g2
(g6
S'&\x04'
p3030
tp3031
Rp3032
sS'n04210390'
p3033
g2
(g6
S'\x9a\x06'
p3034
tp3035
Rp3036
sS'n03316406'
p3037
g2
(g6
S'\x9e\x06'
p3038
tp3039
Rp3040
sS'n01525720'
p3041
g2
(g6
S'\xfd\x04'
p3042
tp3043
Rp3044
sS'n02115641'
p3045
g2
(g75
S'\x9b'
p3046
tp3047
Rp3048
sS'n07622061'
p3049
g2
(g6
S'\x1e\x04'
p3050
tp3051
Rp3052
sS'n01537544'
p3053
g2
(g6
S'\x86\x01'
p3054
tp3055
Rp3056
sS'n02165105'
p3057
g2
(g6
S'm\x02'
p3058
tp3059
Rp3060
sS'n03014705'
p3061
g2
(g6
S'\xfa\x02'
p3062
tp3063
Rp3064
sS'n01874434'
p3065
g2
(g6
S'\xf7\x04'
p3066
tp3067
Rp3068
sS'n02325366'
p3069
g2
(g75
S'\xbc'
p3070
tp3071
Rp3072
sS'n04127249'
p3073
g2
(g6
S'J\x02'
p3074
tp3075
Rp3076
sS'n03076708'
p3077
g2
(g6
S'\x16\x07'
p3078
tp3079
Rp3080
sS'n07718747'
p3081
g2
(g6
S'\xe8\x02'
p3082
tp3083
Rp3084
sS'n02121808'
p3085
g2
(g6
S'\x86\x04'
p3086
tp3087
Rp3088
sS'n02115913'
p3089
g2
(g75
S'\x88'
p3090
tp3091
Rp3092
sS'n01742172'
p3093
g2
(g6
S'\xe6\x01'
p3094
tp3095
Rp3096
sS'n03575240'
p3097
g2
(g6
S'm\x05'
p3098
tp3099
Rp3100
sS'n12985857'
p3101
g2
(g6
S'v\x03'
p3102
tp3103
Rp3104
sS'n01784675'
p3105
g2
(g6
S'c\x02'
p3106
tp3107
Rp3108
sS'n02791124'
p3109
g2
(g6
S'3\x01'
p3110
tp3111
Rp3112
sS'n02423022'
p3113
g2
(g75
S'\x0c'
p3114
tp3115
Rp3116
sS'n06793231'
p3117
g2
(g6
S'?\x07'
p3118
tp3119
Rp3120
sS'n04490091'
p3121
g2
(g6
S'\x10\x06'
p3122
tp3123
Rp3124
sS'n02085620'
p3125
g2
(g75
S'\xad'
p3126
tp3127
Rp3128
sS'n01981276'
p3129
g2
(g6
S'h\x02'
p3130
tp3131
Rp3132
sS'n02528163'
p3133
g2
(g6
S'_\x05'
p3134
tp3135
Rp3136
sS'n02114712'
p3137
g2
(g75
S'\x1c'
p3138
tp3139
Rp3140
sS'n04284002'
p3141
g2
(g6
S'\x19\x06'
p3142
tp3143
Rp3144
sS'n02638596'
p3145
g2
(g6
S'k\x05'
p3146
tp3147
Rp3148
sS'n00002137'
p3149
g2
(g6
S'7\x07'
p3150
tp3151
Rp3152
sS'n03859495'
p3153
g2
(g6
S'\xdd\x06'
p3154
tp3155
Rp3156
sS'n04605726'
p3157
g2
(g6
S'\xc9\x06'
p3158
tp3159
Rp3160
sS'n00002684'
p3161
g2
(g6
S'9\x04'
p3162
tp3163
Rp3164
sS'n02087122'
p3165
g2
(g6
S'\x88\x04'
p3166
tp3167
Rp3168
sS'n10019552'
p3169
g2
(g6
S'5\x04'
p3170
tp3171
Rp3172
sS'n09409512'
p3173
g2
(g6
S'>\x04'
p3174
tp3175
Rp3176
sS'n03899768'
p3177
g2
(g6
S'\xa7\x02'
p3178
tp3179
Rp3180
sS'n04442312'
p3181
g2
(g6
S'\x98\x02'
p3182
tp3183
Rp3184
sS'n02490219'
p3185
g2
(g75
S'\xaf'
p3186
tp3187
Rp3188
sS'n02856463'
p3189
g2
(g6
S'\xc3\x06'
p3190
tp3191
Rp3192
sS'n04256520'
p3193
g2
(g6
S'\x80\x06'
p3194
tp3195
Rp3196
sS'n02116738'
p3197
g2
(g75
S'\xca'
p3198
tp3199
Rp3200
sS'n03208938'
p3201
g2
(g6
S'C\x02'
p3202
tp3203
Rp3204
sS'n03447447'
p3205
g2
(g75
S'\xec'
p3206
tp3207
Rp3208
sS'n02112706'
p3209
g2
(g75
S'F'
p3210
tp3211
Rp3212
sS'n03124170'
p3213
g2
(g6
S'q\x03'
p3214
tp3215
Rp3216
sS'n02729837'
p3217
g2
(g6
S'\x19\x07'
p3218
tp3219
Rp3220
sS'n01439121'
p3221
g2
(g6
S'b\x05'
p3222
tp3223
Rp3224
sS'n02512938'
p3225
g2
(g6
S'\\\x05'
p3226
tp3227
Rp3228
sS'n03041632'
p3229
g2
(g6
S'r\x01'
p3230
tp3231
Rp3232
sS'n00027807'
p3233
g2
(g6
S'9\x07'
p3234
tp3235
Rp3236
sS'n02895154'
p3237
g2
(g6
S'\xb5\x03'
p3238
tp3239
Rp3240
sS'n04081281'
p3241
g2
(g6
S'\xb6\x02'
p3242
tp3243
Rp3244
sS'n02125311'
p3245
g2
(g75
S'\x0b'
p3246
tp3247
Rp3248
sS'n03057021'
p3249
g2
(g6
S'\xe9\x06'
p3250
tp3251
Rp3252
sS'n04065272'
p3253
g2
(g6
S'\x1e\x01'
p3254
tp3255
Rp3256
sS'n03764276'
p3257
g2
(g6
S'h\x06'
p3258
tp3259
Rp3260
sS'n01639765'
p3261
g2
(g6
S'O\x05'
p3262
tp3263
Rp3264
sS'n04335435'
p3265
g2
(g6
S'\x1f\x01'
p3266
tp3267
Rp3268
sS'n02104029'
p3269
g2
(g75
S'\x8d'
p3270
tp3271
Rp3272
sS'n01440764'
p3273
g2
(g6
S'\xc1\x01'
p3274
tp3275
Rp3276
sS'n03667829'
p3277
g2
(g6
S'\x9e\x05'
p3278
tp3279
Rp3280
sS'n03206718'
p3281
g2
(g6
S'\xd8\x06'
p3282
tp3283
Rp3284
sS'n02137549'
p3285
g2
(g75
S'J'
p3286
tp3287
Rp3288
sS'n03129123'
p3289
g2
(g6
S'\xbe\x06'
p3290
tp3291
Rp3292
sS'n02908217'
p3293
g2
(g6
S'\xf7\x05'
p3294
tp3295
Rp3296
sS'n02159955'
p3297
g2
(g6
S'k\x04'
p3298
tp3299
Rp3300
sS'n02346627'
p3301
g2
(g75
S'\r'
p3302
tp3303
Rp3304
sS'n04141076'
p3305
g2
(g6
S'c\x01'
p3306
tp3307
Rp3308
sS'n04507155'
p3309
g2
(g75
S'\xdc'
p3310
tp3311
Rp3312
sS'n02453611'
p3313
g2
(g6
S'\xed\x04'
p3314
tp3315
Rp3316
sS'n03045337'
p3317
g2
(g6
S'\xe8\x06'
p3318
tp3319
Rp3320
sS'n03134739'
p3321
g2
(g6
S'\xf4\x02'
p3322
tp3323
Rp3324
sS'n01498041'
p3325
g2
(g6
S'\xbe\x01'
p3326
tp3327
Rp3328
sS'n01773549'
p3329
g2
(g6
S']\x02'
p3330
tp3331
Rp3332
sS'n02109525'
p3333
g2
(g75
S'\xb1'
p3334
tp3335
Rp3336
sS'n03259280'
p3337
g2
(g6
S'\x96\x02'
p3338
tp3339
Rp3340
sS'n04070727'
p3341
g2
(g6
S'\x9c\x02'
p3342
tp3343
Rp3344
sS'n07829412'
p3345
g2
(g6
S'\xf9\x03'
p3346
tp3347
Rp3348
sS'n15046900'
p3349
g2
(g6
S'\x1c\x04'
p3350
tp3351
Rp3352
sS'n11689483'
p3353
g2
(g6
S'P\x04'
p3354
tp3355
Rp3356
sS'n02554730'
p3357
g2
(g6
S'e\x05'
p3358
tp3359
Rp3360
sS'n03187595'
p3361
g2
(g6
S'\xbf\x03'
p3362
tp3363
Rp3364
sS'n02088466'
p3365
g2
(g75
S' '
p3366
tp3367
Rp3368
sS'n03874599'
p3369
g2
(g6
S'H\x02'
p3370
tp3371
Rp3372
sS'n01776192'
p3373
g2
(g6
S'd\x04'
p3374
tp3375
Rp3376
sS'n07695965'
p3377
g2
(g6
S'\x02\x04'
p3378
tp3379
Rp3380
sS'n11879895'
p3381
g2
(g6
S'J\x01'
p3382
tp3383
Rp3384
sS'n04417672'
p3385
g2
(g6
S'\xdd\x03'
p3386
tp3387
Rp3388
sS'n02093428'
p3389
g2
(g75
S'\xaa'
p3390
tp3391
Rp3392
sS'n04574999'
p3393
g2
(g6
S'\xbd\x05'
p3394
tp3395
Rp3396
sS'n02023341'
p3397
g2
(g6
S'\x1f\x05'
p3398
tp3399
Rp3400
sS'n07720442'
p3401
g2
(g6
S"'\x04"
p3402
tp3403
Rp3404
sS'n09349797'
p3405
g2
(g6
S'I\x04'
p3406
tp3407
Rp3408
sS'n04311174'
p3409
g2
(g6
S'T\x01'
p3410
tp3411
Rp3412
sS'n02276258'
p3413
g2
(g6
S'\x81\x02'
p3414
tp3415
Rp3416
sS'n03733281'
p3417
g2
(g6
S'\x9a\x03'
p3418
tp3419
Rp3420
sS'n03602883'
p3421
g2
(g6
S'0\x02'
p3422
tp3423
Rp3424
sS'n03619396'
p3425
g2
(g6
S'A\x06'
p3426
tp3427
Rp3428
sS'n02484473'
p3429
g2
(g6
S'\xc1\x04'
p3430
tp3431
Rp3432
sS'n04100174'
p3433
g2
(g6
S'\xfb\x05'
p3434
tp3435
Rp3436
sS'n04099429'
p3437
g2
(g6
S'i\x06'
p3438
tp3439
Rp3440
sS'n01767661'
p3441
g2
(g6
S'a\x04'
p3442
tp3443
Rp3444
sS'n10439851'
p3445
g2
(g6
S'2\x04'
p3446
tp3447
Rp3448
sS'n02887209'
p3449
g2
(g6
S'\xdb\x05'
p3450
tp3451
Rp3452
sS'n03636649'
p3453
g2
(g6
S'z\x06'
p3454
tp3455
Rp3456
sS'n04467665'
p3457
g2
(g6
S'\x1b\x01'
p3458
tp3459
Rp3460
sS'n02111626'
p3461
g2
(g6
S'\xa7\x04'
p3462
tp3463
Rp3464
sS'n04453910'
p3465
g2
(g6
S'\x12\x07'
p3466
tp3467
Rp3468
sS'n07754684'
p3469
g2
(g6
S'D\x01'
p3470
tp3471
Rp3472
sS'n04447443'
p3473
g2
(g6
S'Q\x06'
p3474
tp3475
Rp3476
sS'n02401031'
p3477
g2
(g6
S'\xe2\x04'
p3478
tp3479
Rp3480
sS'n02008796'
p3481
g2
(g6
S'\x1b\x05'
p3482
tp3483
Rp3484
sS'n04128837'
p3485
g2
(g6
S'a\x06'
p3486
tp3487
Rp3488
sS'n04116512'
p3489
g2
(g6
S'\xe5\x03'
p3490
tp3491
Rp3492
sS'n02437136'
p3493
g2
(g6
S'\xe0\x04'
p3494
tp3495
Rp3496
sS'n03197337'
p3497
g2
(g6
S'\x11\x02'
p3498
tp3499
Rp3500
sS'n02319095'
p3501
g2
(g6
S'\x91\x02'
p3502
tp3503
Rp3504
sS'n01514668'
p3505
g2
(g6
S'\x7f\x01'
p3506
tp3507
Rp3508
sS'n09287968'
p3509
g2
(g6
S':\x04'
p3510
tp3511
Rp3512
sS'n02496913'
p3513
g2
(g6
S'\xba\x04'
p3514
tp3515
Rp3516
sS'n03990474'
p3517
g2
(g6
S'\xf4\x05'
p3518
tp3519
Rp3520
sS'n03791053'
p3521
g2
(g6
S'\x04\x01'
p3522
tp3523
Rp3524
sS'n03153375'
p3525
g2
(g6
S'0\x07'
p3526
tp3527
Rp3528
sS'n01861778'
p3529
g2
(g6
S'\xb4\x04'
p3530
tp3531
Rp3532
sS'n03791235'
p3533
g2
(g6
S'\x0c\x06'
p3534
tp3535
Rp3536
sS'n01753488'
p3537
g2
(g6
S'\xeb\x01'
p3538
tp3539
Rp3540
sS'n04077734'
p3541
g2
(g6
S'P\x06'
p3542
tp3543
Rp3544
sS'n01667114'
p3545
g2
(g6
S'\xcc\x01'
p3546
tp3547
Rp3548
sS'n03427296'
p3549
g2
(g6
S'\xb5\x06'
p3550
tp3551
Rp3552
sS'n03837422'
p3553
g2
(g6
S'\xfa\x05'
p3554
tp3555
Rp3556
sS'n01950731'
p3557
g2
(g6
S'\x8f\x02'
p3558
tp3559
Rp3560
sS'n02123045'
p3561
g2
(g75
S'\xae'
p3562
tp3563
Rp3564
sS'n07711569'
p3565
g2
(g6
S'\xde\x02'
p3566
tp3567
Rp3568
sS'n03997484'
p3569
g2
(g6
S'\xad\x05'
p3570
tp3571
Rp3572
sS'n03595614'
p3573
g2
(g6
S'\xc1\x03'
p3574
tp3575
Rp3576
sS'n03617480'
p3577
g2
(g6
S'\x02\x03'
p3578
tp3579
Rp3580
sS'n04049303'
p3581
g2
(g6
S'\x9f\x03'
p3582
tp3583
Rp3584
sS'n06596364'
p3585
g2
(g6
S'\xa2\x03'
p3586
tp3587
Rp3588
sS'n02417914'
p3589
g2
(g75
S'\t'
p3590
tp3591
Rp3592
sS'n01915811'
p3593
g2
(g6
S'~\x04'
p3594
tp3595
Rp3596
sS'n03996145'
p3597
g2
(g6
S'\xae\x05'
p3598
tp3599
Rp3600
sS'n02153203'
p3601
g2
(g6
S'\xac\x04'
p3602
tp3603
Rp3604
sS'n03109150'
p3605
g2
(g6
S'x\x01'
p3606
tp3607
Rp3608
sS'n01886756'
p3609
g2
(g6
S'\xb5\x04'
p3610
tp3611
Rp3612
sS'n07710616'
p3613
g2
(g6
S'\xf0\x03'
p3614
tp3615
Rp3616
sS'n03630383'
p3617
g2
(g6
S'\x96\x03'
p3618
tp3619
Rp3620
sS'n01873310'
p3621
g2
(g75
S'\xd9'
p3622
tp3623
Rp3624
sS'n03770439'
p3625
g2
(g6
S'p\x03'
p3626
tp3627
Rp3628
sS'n02087046'
p3629
g2
(g75
S'Y'
p3630
tp3631
Rp3632
sS'n03065424'
p3633
g2
(g6
S'\xba\x02'
p3634
tp3635
Rp3636
sS'n01665541'
p3637
g2
(g6
S'\xcb\x01'
p3638
tp3639
Rp3640
sS'n01883070'
p3641
g2
(g75
S'\xda'
p3642
tp3643
Rp3644
sS'n03347037'
p3645
g2
(g6
S'\x97\x03'
p3646
tp3647
Rp3648
sS'n03744840'
p3649
g2
(g6
S'\xc4\x05'
p3650
tp3651
Rp3652
sS'n03706229'
p3653
g2
(g6
S'\x14\x02'
p3654
tp3655
Rp3656
sS'n02790996'
p3657
g2
(g6
S'\x94\x03'
p3658
tp3659
Rp3660
sS'n03496892'
p3661
g2
(g6
S'*\x02'
p3662
tp3663
Rp3664
sS'n03151077'
p3665
g2
(g6
S'\x86\x06'
p3666
tp3667
Rp3668
sS'n00033020'
p3669
g2
(g6
S'>\x07'
p3670
tp3671
Rp3672
sS'n03977966'
p3673
g2
(g6
S'\x1d\x01'
p3674
tp3675
Rp3676
sS'n02441942'
p3677
g2
(g75
S'0'
p3678
tp3679
Rp3680
sS'n04596742'
p3681
g2
(g6
S'\xa0\x02'
p3682
tp3683
Rp3684
sS'n01789386'
p3685
g2
(g6
S'\x08\x05'
p3686
tp3687
Rp3688
sS'n07705931'
p3689
g2
(g6
S' \x04'
p3690
tp3691
Rp3692
sS'n02981792'
p3693
g2
(g75
S'\xf1'
p3694
tp3695
Rp3696
sS'n02055658'
p3697
g2
(g6
S"'\x05"
p3698
tp3699
Rp3700
sS'n03221720'
p3701
g2
(g6
S'\xb4\x06'
p3702
tp3703
Rp3704
sS'n03394916'
p3705
g2
(g6
S'\\\x01'
p3706
tp3707
Rp3708
sS'n02231052'
p3709
g2
(g6
S'r\x04'
p3710
tp3711
Rp3712
sS'n02954340'
p3713
g2
(g6
S'\xf4\x06'
p3714
tp3715
Rp3716
sS'n04044498'
p3717
g2
(g6
S'M\x06'
p3718
tp3719
Rp3720
sS'n12992868'
p3721
g2
(g6
S']\x04'
p3722
tp3723
Rp3724
sS'n01747885'
p3725
g2
(g6
S'H\x05'
p3726
tp3727
Rp3728
sS'n02676566'
p3729
g2
(g6
S'Y\x01'
p3730
tp3731
Rp3732
sS'n02113023'
p3733
g2
(g75
S'\xc5'
p3734
tp3735
Rp3736
sS'n03443371'
p3737
g2
(g6
S'\xbb\x03'
p3738
tp3739
Rp3740
sS'n03710193'
p3741
g2
(g6
S'\x95\x03'
p3742
tp3743
Rp3744
sS'n03467068'
p3745
g2
(g6
S'\x05\x02'
p3746
tp3747
Rp3748
sS'n01484850'
p3749
g2
(g6
S'\xba\x01'
p3750
tp3751
Rp3752
sS'n02013706'
p3753
g2
(g6
S'\xae\x01'
p3754
tp3755
Rp3756
sS'n04185071'
p3757
g2
(g6
S'\xf9\x05'
p3758
tp3759
Rp3760
sS'n01480516'
p3761
g2
(g6
S'V\x05'
p3762
tp3763
Rp3764
sS'n03196217'
p3765
g2
(g6
S'\x0b\x02'
p3766
tp3767
Rp3768
sS'n01871265'
p3769
g2
(g75
S'\xd6'
p3770
tp3771
Rp3772
sS'n02091032'
p3773
g2
(g75
S'\xbd'
p3774
tp3775
Rp3776
sS'n04524313'
p3777
g2
(g6
S'V\x06'
p3778
tp3779
Rp3780
sS'n02102318'
p3781
g2
(g75
S'\xbf'
p3782
tp3783
Rp3784
sS'n02110063'
p3785
g2
(g75
S'\x0f'
p3786
tp3787
Rp3788
sS'n03091374'
p3789
g2
(g6
S'p\x06'
p3790
tp3791
Rp3792
sS'n03210683'
p3793
g2
(g6
S',\x06'
p3794
tp3795
Rp3796
sS'n03874293'
p3797
g2
(g6
S'4\x02'
p3798
tp3799
Rp3800
sS'n02526121'
p3801
g2
(g6
S'\xc3\x01'
p3802
tp3803
Rp3804
sS'n04296261'
p3805
g2
(g6
S'\xff\x05'
p3806
tp3807
Rp3808
sS'n02835271'
p3809
g2
(g75
S'\xfe'
p3810
tp3811
Rp3812
sS'n07560652'
p3813
g2
(g6
S'\xfc\x03'
p3814
tp3815
Rp3816
sS'n02102480'
p3817
g2
(g75
S'\xc4'
p3818
tp3819
Rp3820
sS'n02098550'
p3821
g2
(g6
S'\x89\x04'
p3822
tp3823
Rp3824
sS'n04487394'
p3825
g2
(g6
S']\x01'
p3826
tp3827
Rp3828
sS'n04285622'
p3829
g2
(g6
S'\x03\x06'
p3830
tp3831
Rp3832
sS'n04090263'
p3833
g2
(g6
S'\x1d\x02'
p3834
tp3835
Rp3836
sS'n03467517'
p3837
g2
(g6
S'v\x05'
p3838
tp3839
Rp3840
sS'n02051474'
p3841
g2
(g6
S'&\x05'
p3842
tp3843
Rp3844
sS'n01604330'
p3845
g2
(g6
S'\x04\x05'
p3846
tp3847
Rp3848
sS'n02389026'
p3849
g2
(g75
S"'"
p3850
tp3851
Rp3852
sS'n02769748'
p3853
g2
(g6
S'O\x03'
p3854
tp3855
Rp3856
sS'n02095314'
p3857
g2
(g75
S'\xa0'
p3858
tp3859
Rp3860
sS'n02355227'
p3861
g2
(g6
S'\xf2\x04'
p3862
tp3863
Rp3864
sS'n04531098'
p3865
g2
(g6
S'\x1f\x06'
p3866
tp3867
Rp3868
sS'n01473806'
p3869
g2
(g6
S'T\x05'
p3870
tp3871
Rp3872
sS'n01773157'
p3873
g2
(g6
S'\\\x02'
p3874
tp3875
Rp3876
sS'n03928116'
p3877
g2
(g6
S'q\x05'
p3878
tp3879
Rp3880
sS'n02233338'
p3881
g2
(g6
S'z\x02'
p3882
tp3883
Rp3884
sS'n02026059'
p3885
g2
(g6
S'!\x05'
p3886
tp3887
Rp3888
sS'n03017168'
p3889
g2
(g6
S'O\x01'
p3890
tp3891
Rp3892
sS'n01860187'
p3893
g2
(g6
S'\xa5\x01'
p3894
tp3895
Rp3896
sS'n03388183'
p3897
g2
(g6
S'\xa6\x03'
p3898
tp3899
Rp3900
sS'n04074963'
p3901
g2
(g6
S'B\x02'
p3902
tp3903
Rp3904
sS'n01797886'
p3905
g2
(g6
S'\x93\x01'
p3906
tp3907
Rp3908
sS'n01582220'
p3909
g2
(g6
S'\x8a\x01'
p3910
tp3911
Rp3912
sS'n03510583'
p3913
g2
(g6
S'Y\x06'
p3914
tp3915
Rp3916
sS'n02883205'
p3917
g2
(g6
S'1\x03'
p3918
tp3919
Rp3920
sS'n02102177'
p3921
g2
(g75
S'\x13'
p3922
tp3923
Rp3924
sS'n03792972'
p3925
g2
(g6
S'\xd8\x02'
p3926
tp3927
Rp3928
sS'n02328150'
p3929
g2
(g75
S'\xa4'
p3930
tp3931
Rp3932
sS'n02171453'
p3933
g2
(g6
S'm\x04'
p3934
tp3935
Rp3936
sS'n03277771'
p3937
g2
(g6
S'\x87\x05'
p3938
tp3939
Rp3940
sS'n01613294'
p3941
g2
(g6
S'\x06\x05'
p3942
tp3943
Rp3944
sS'n07588947'
p3945
g2
(g6
S'\xff\x03'
p3946
tp3947
Rp3948
sS'n02913152'
p3949
g2
(g6
S'\x92\x06'
p3950
tp3951
Rp3952
sS'n01514859'
p3953
g2
(g6
S'\x80\x01'
p3954
tp3955
Rp3956
sS'n04462240'
p3957
g2
(g6
S'\xc7\x02'
p3958
tp3959
Rp3960
sS'n03627232'
p3961
g2
(g6
S'F\x02'
p3962
tp3963
Rp3964
sS'n04589890'
p3965
g2
(g6
S'\x90\x03'
p3966
tp3967
Rp3968
sS'n01882714'
p3969
g2
(g75
S'\xd5'
p3970
tp3971
Rp3972
sS'n02680110'
p3973
g2
(g6
S'\xd2\x06'
p3974
tp3975
Rp3976
sS'n03099771'
p3977
g2
(g6
S'\xc8\x05'
p3978
tp3979
Rp3980
sS'n02988304'
p3981
g2
(g6
S'\xdb\x03'
p3982
tp3983
Rp3984
sS'n02083346'
p3985
g2
(g6
S'\xc9\x04'
p3986
tp3987
Rp3988
sS'n01662622'
p3989
g2
(g6
S',\x05'
p3990
tp3991
Rp3992
sS'n03249569'
p3993
g2
(g6
S'P\x01'
p3994
tp3995
Rp3996
sS'n03871083'
p3997
g2
(g6
S'-\x06'
p3998
tp3999
Rp4000
sS'n04548280'
p4001
g2
(g6
S'\x0c\x02'
p4002
tp4003
Rp4004
sS'n01560419'
p4005
g2
(g6
S'\x88\x01'
p4006
tp4007
Rp4008
sS'n04263760'
p4009
g2
(g6
S'\xd6\x05'
p4010
tp4011
Rp4012
sS'n02493793'
p4013
g2
(g75
S'o'
p4014
tp4015
Rp4016
sS'n01503061'
p4017
g2
(g6
S'\xfa\x04'
p4018
tp4019
Rp4020
sS'n02492660'
p4021
g2
(g75
S'\xa6'
p4022
tp4023
Rp4024
sS'n02894605'
p4025
g2
(g6
S'\xcf\x02'
p4026
tp4027
Rp4028
sS'n02487347'
p4029
g2
(g75
S'\x8a'
p4030
tp4031
Rp4032
sS'n02699494'
p4033
g2
(g6
S'\xa5\x02'
p4034
tp4035
Rp4036
sS'n04597804'
p4037
g2
(g6
S'.\x07'
p4038
tp4039
Rp4040
sS'n02671780'
p4041
g2
(g6
S'\xdb\x06'
p4042
tp4043
Rp4044
sS'n07720875'
p4045
g2
(g6
S'\xdf\x02'
p4046
tp4047
Rp4048
sS'n02970849'
p4049
g2
(g6
S'\x16\x06'
p4050
tp4051
Rp4052
sS'n02370806'
p4053
g2
(g6
S'\xdb\x04'
p4054
tp4055
Rp4056
sS'n03094503'
p4057
g2
(g6
S'\x04\x06'
p4058
tp4059
Rp4060
sS'n03095699'
p4061
g2
(g75
S'\xf3'
p4062
tp4063
Rp4064
sS'n07613480'
p4065
g2
(g6
S'\x19\x03'
p4066
tp4067
Rp4068
sS'n01806143'
p4069
g2
(g6
S'\x95\x01'
p4070
tp4071
Rp4072
sS'n02206856'
p4073
g2
(g6
S'v\x02'
p4074
tp4075
Rp4076
sS'n04079244'
p4077
g2
(g6
S'\x95\x06'
p4078
tp4079
Rp4080
sS'n02443484'
p4081
g2
(g75
S'('
p4082
tp4083
Rp4084
sS'n02804610'
p4085
g2
(g6
S'a\x01'
p4086
tp4087
Rp4088
sS'n02828884'
p4089
g2
(g6
S'}\x06'
p4090
tp4091
Rp4092
sS'n03761084'
p4093
g2
(g6
S'\x95\x02'
p4094
tp4095
Rp4096
sS'n03733925'
p4097
g2
(g6
S'\x8e\x05'
p4098
tp4099
Rp4100
sS'n04005630'
p4101
g2
(g6
S'\xbe\x02'
p4102
tp4103
Rp4104
sS'n04244997'
p4105
g2
(g6
S'`\x06'
p4106
tp4107
Rp4108
sS'n01428580'
p4109
g2
(g6
S'`\x05'
p4110
tp4111
Rp4112
sS'n02110341'
p4113
g2
(g75
S')'
p4114
tp4115
Rp4116
sS'n03924679'
p4117
g2
(g6
S'\x15\x03'
p4118
tp4119
Rp4120
sS'n07707451'
p4121
g2
(g6
S'%\x04'
p4122
tp4123
Rp4124
sS'n03163973'
p4125
g2
(g6
S'K\x06'
p4126
tp4127
Rp4128
sS'n04191595'
p4129
g2
(g6
S'\xb6\x06'
p4130
tp4131
Rp4132
sS'n13134947'
p4133
g2
(g6
S'N\x04'
p4134
tp4135
Rp4136
sS'n14778436'
p4137
g2
(g6
S'\x11\x04'
p4138
tp4139
Rp4140
sS'n01641577'
p4141
g2
(g6
S'\xf3\x01'
p4142
tp4143
Rp4144
sS'n01774750'
p4145
g2
(g6
S'`\x02'
p4146
tp4147
Rp4148
sS'n04152593'
p4149
g2
(g6
S'\xfe\x01'
p4150
tp4151
Rp4152
sS'n04602044'
p4153
g2
(g6
S'F\x04'
p4154
tp4155
Rp4156
sS'n04576211'
p4157
g2
(g6
S'\x05\x06'
p4158
tp4159
Rp4160
sS'n01909422'
p4161
g2
(g6
S'|\x04'
p4162
tp4163
Rp4164
sS'n02391049'
p4165
g2
(g75
S'P'
p4166
tp4167
Rp4168
sS'n03489162'
p4169
g2
(g6
S'\xec\x05'
p4170
tp4171
Rp4172
sS'n02101861'
p4173
g2
(g6
S'\x8e\x04'
p4174
tp4175
Rp4176
sS'n02106662'
p4177
g2
(g75
S'\xd3'
p4178
tp4179
Rp4180
sS'n03452741'
p4181
g2
(g75
S'\xe3'
p4182
tp4183
Rp4184
sS'n02206270'
p4185
g2
(g6
S'p\x04'
p4186
tp4187
Rp4188
sS'n01955084'
p4189
g2
(g6
S'\x90\x02'
p4190
tp4191
Rp4192
sS'n04359589'
p4193
g2
(g6
S'\xdc\x05'
p4194
tp4195
Rp4196
sS'n04550184'
p4197
g2
(g6
S'=\x01'
p4198
tp4199
Rp4200
sS'n04531873'
p4201
g2
(g6
S'\xe0\x06'
p4202
tp4203
Rp4204
sS'n03372029'
p4205
g2
(g6
S'd\x01'
p4206
tp4207
Rp4208
sS'n04188643'
p4209
g2
(g6
S'\xc2\x06'
p4210
tp4211
Rp4212
sS'n03513137'
p4213
g2
(g6
S'\xf3\x06'
p4214
tp4215
Rp4216
sS'n03935335'
p4217
g2
(g6
S'\xa3\x03'
p4218
tp4219
Rp4220
sS'n03776460'
p4221
g2
(g6
S'"\x01'
p4222
tp4223
Rp4224
sS'n03793489'
p4225
g2
(g6
S'\xff\x01'
p4226
tp4227
Rp4228
sS'n01640846'
p4229
g2
(g6
S'P\x05'
p4230
tp4231
Rp4232
sS'n03838899'
p4233
g2
(g6
S'b\x01'
p4234
tp4235
Rp4236
sS'n04111531'
p4237
g2
(g6
S'\x97\x02'
p4238
tp4239
Rp4240
sS'n03895866'
p4241
g2
(g6
S'\x01\x01'
p4242
tp4243
Rp4244
sS'n04571292'
p4245
g2
(g6
S'9\x06'
p4246
tp4247
Rp4248
sS'n01517565'
p4249
g2
(g6
S'\xfb\x04'
p4250
tp4251
Rp4252
sS'n01990800'
p4253
g2
(g6
S'd\x02'
p4254
tp4255
Rp4256
sS'n04447861'
p4257
g2
(g6
S'8\x01'
p4258
tp4259
Rp4260
sS'n03804744'
p4261
g2
(g6
S'I\x02'
p4262
tp4263
Rp4264
sS'n03954731'
p4265
g2
(g6
S't\x01'
p4266
tp4267
Rp4268
sS'n04599396'
p4269
g2
(g6
S'\xc0\x06'
p4270
tp4271
Rp4272
sS'n03676483'
p4273
g2
(g6
S'c\x03'
p4274
tp4275
Rp4276
sS'n04485082'
p4277
g2
(g6
S'U\x02'
p4278
tp4279
Rp4280
sS'n01978455'
p4281
g2
(g6
S'f\x02'
p4282
tp4283
Rp4284
sS'n03873064'
p4285
g2
(g6
S'\x14\x07'
p4286
tp4287
Rp4288
sS'n04392985'
p4289
g2
(g6
S'\xd2\x03'
p4290
tp4291
Rp4292
sS'n01605630'
p4293
g2
(g6
S'\x05\x05'
p4294
tp4295
Rp4296
sS'n04417180'
p4297
g2
(g6
S'\xb8\x05'
p4298
tp4299
Rp4300
sS'n03633091'
p4301
g2
(g6
S'|\x03'
p4302
tp4303
Rp4304
sS'n02117135'
p4305
g2
(g75
S'"'
p4306
tp4307
Rp4308
sS'n04161981'
p4309
g2
(g6
S'|\x06'
p4310
tp4311
Rp4312
sS'n03786901'
p4313
g2
(g6
S'8\x03'
p4314
tp4315
Rp4316
sS'n02411705'
p4317
g2
(g6
S'\xe3\x04'
p4318
tp4319
Rp4320
sS'n03678362'
p4321
g2
(g6
S'k\x06'
p4322
tp4323
Rp4324
sS'n03742115'
p4325
g2
(g6
S'.\x01'
p4326
tp4327
Rp4328
sS'n04105068'
p4329
g2
(g6
S'\x06\x07'
p4330
tp4331
Rp4332
sS'n02643566'
p4333
g2
(g6
S'\xc6\x01'
p4334
tp4335
Rp4336
sS'n01687978'
p4337
g2
(g6
S'\xd3\x01'
p4338
tp4339
Rp4340
sS'n03773504'
p4341
g2
(g75
S'\xfb'
p4342
tp4343
Rp4344
sS'n02708224'
p4345
g2
(g6
S'\xb1\x05'
p4346
tp4347
Rp4348
sS'n07695742'
p4349
g2
(g6
S'\xcf\x03'
p4350
tp4351
Rp4352
sS'n01697178'
p4353
g2
(g6
S'A\x05'
p4354
tp4355
Rp4356
sS'n03274561'
p4357
g2
(g6
S'\x86\x05'
p4358
tp4359
Rp4360
sS'n02488702'
p4361
g2
(g75
S'6'
p4362
tp4363
Rp4364
sS'n03983396'
p4365
g2
(g6
S'\x14\x03'
p4366
tp4367
Rp4368
sS'n03932670'
p4369
g2
(g6
S'\xc6\x06'
p4370
tp4371
Rp4372
sS'n03930313'
p4373
g2
(g6
S'\xd2\x02'
p4374
tp4375
Rp4376
sS'n03490324'
p4377
g2
(g6
S'\xf0\x06'
p4378
tp4379
Rp4380
sS'n04332243'
p4381
g2
(g6
S'\x02\x02'
p4382
tp4383
Rp4384
sS'n02823428'
p4385
g2
(g6
S'\t\x03'
p4386
tp4387
Rp4388
sS'n02089867'
p4389
g2
(g75
S'\x12'
p4390
tp4391
Rp4392
sS'n02111889'
p4393
g2
(g75
S'\xb3'
p4394
tp4395
Rp4396
sS'n02062744'
p4397
g2
(g6
S'\xd7\x04'
p4398
tp4399
Rp4400
sS'n01845132'
p4401
g2
(g6
S'\x12\x05'
p4402
tp4403
Rp4404
sS'n01749582'
p4405
g2
(g6
S'I\x05'
p4406
tp4407
Rp4408
sS'n02441326'
p4409
g2
(g6
S'\xc6\x04'
p4410
tp4411
Rp4412
sS'n02895606'
p4413
g2
(g6
S'\x83\x05'
p4414
tp4415
Rp4416
sS'n02652668'
p4417
g2
(g6
S'j\x05'
p4418
tp4419
Rp4420
sS'n03483316'
p4421
g2
(g6
S'\xf9\x01'
p4422
tp4423
Rp4424
sS'n01749742'
p4425
g2
(g6
S'J\x05'
p4426
tp4427
Rp4428
sS'n13054560'
p4429
g2
(g6
S'\xd5\x03'
p4430
tp4431
Rp4432
sS'n03265032'
p4433
g2
(g6
S'\xe7\x05'
p4434
tp4435
Rp4436
sS'n03938244'
p4437
g2
(g6
S'x\x03'
p4438
tp4439
Rp4440
sS'n02219486'
p4441
g2
(g75
S'\xe0'
p4442
tp4443
Rp4444
sS'n03269401'
p4445
g2
(g6
S'\x84\x05'
p4446
tp4447
Rp4448
sS'n02097658'
p4449
g2
(g75
S'\x83'
p4450
tp4451
Rp4452
sS'n03769881'
p4453
g2
(g6
S'\x98\x03'
p4454
tp4455
Rp4456
sS'n03444034'
p4457
g2
(g6
S'\x13\x01'
p4458
tp4459
Rp4460
sS'n06794110'
p4461
g2
(g6
S'\xa4\x03'
p4462
tp4463
Rp4464
sS'n03948459'
p4465
g2
(g6
S'\xa9\x05'
p4466
tp4467
Rp4468
sS'n07930554'
p4469
g2
(g6
S'\x10\x04'
p4470
tp4471
Rp4472
sS'n11665372'
p4473
g2
(g6
S'Y\x04'
p4474
tp4475
Rp4476
sS'n04258138'
p4477
g2
(g6
S'A\x02'
p4478
tp4479
Rp4480
sS'n02416519'
p4481
g2
(g6
S'\xe7\x04'
p4482
tp4483
Rp4484
sS'n03445924'
p4485
g2
(g6
S'\x14\x01'
p4486
tp4487
Rp4488
sS'n03958227'
p4489
g2
(g6
S'\xc4\x03'
p4490
tp4491
Rp4492
sS'n02107420'
p4493
g2
(g6
S'\xa4\x04'
p4494
tp4495
Rp4496
sS'n04603872'
p4497
g2
(g6
S'\xfd\x06'
p4498
tp4499
Rp4500
sS'n02402010'
p4501
g2
(g6
S'\xea\x04'
p4502
tp4503
Rp4504
sS'n01741943'
p4505
g2
(g6
S'E\x05'
p4506
tp4507
Rp4508
sS'n02701002'
p4509
g2
(g6
S'\t\x01'
p4510
tp4511
Rp4512
sS'n04204238'
p4513
g2
(g6
S'\xb6\x03'
p4514
tp4515
Rp4516
sS'n02483708'
p4517
g2
(g75
S'z'
p4518
tp4519
Rp4520
sS'n02259212'
p4521
g2
(g6
S'}\x02'
p4522
tp4523
Rp4524
sS'n04461696'
p4525
g2
(g6
S'\x1a\x01'
p4526
tp4527
Rp4528
sS'n13037406'
p4529
g2
(g6
S'\xbc\x03'
p4530
tp4531
Rp4532
sS'n02954938'
p4533
g2
(g6
S'\x13\x07'
p4534
tp4535
Rp4536
sS'n04389033'
p4537
g2
(g75
S'\xfa'
p4538
tp4539
Rp4540
sS'n04315948'
p4541
g2
(g6
S'I\x06'
p4542
tp4543
Rp4544
sS'n03218198'
p4545
g2
(g75
S'\xfd'
p4546
tp4547
Rp4548
sS'n03614007'
p4549
g2
(g6
S'\xaa\x05'
p4550
tp4551
Rp4552
sS'n07884567'
p4553
g2
(g6
S'\r\x04'
p4554
tp4555
Rp4556
sS'n03418242'
p4557
g2
(g6
S'\xeb\x05'
p4558
tp4559
Rp4560
sS'n02071294'
p4561
g2
(g75
S'\x16'
p4562
tp4563
Rp4564
sS'n02966193'
p4565
g2
(g6
S'8\x02'
p4566
tp4567
Rp4568
sS'n02075296'
p4569
g2
(g6
S'\xc4\x04'
p4570
tp4571
Rp4572
sS'n04191943'
p4573
g2
(g6
S'\x10\x07'
p4574
tp4575
Rp4576
sS'n01694709'
p4577
g2
(g6
S':\x05'
p4578
tp4579
Rp4580
sS'n02123597'
p4581
g2
(g75
S'_'
p4582
tp4583
Rp4584
sS'n01689811'
p4585
g2
(g6
S'\xd5\x01'
p4586
tp4587
Rp4588
sS'n03241496'
p4589
g2
(g6
S"'\x06"
p4590
tp4591
Rp4592
sS'n02930766'
p4593
g2
(g6
S'\x0b\x01'
p4594
tp4595
Rp4596
sS'n01838038'
p4597
g2
(g6
S'\x10\x05'
p4598
tp4599
Rp4600
sS'n04411264'
p4601
g2
(g6
S'\xb7\x06'
p4602
tp4603
Rp4604
sS'n01945685'
p4605
g2
(g6
S'\x8e\x02'
p4606
tp4607
Rp4608
sS'n03664943'
p4609
g2
(g6
S'r\x06'
p4610
tp4611
Rp4612
sS'n04204347'
p4613
g2
(g6
S'\x03\x01'
p4614
tp4615
Rp4616
sS'n03026506'
p4617
g2
(g6
S'!\x03'
p4618
tp4619
Rp4620
sS'n01985128'
p4621
g2
(g6
S'k\x02'
p4622
tp4623
Rp4624
sS'n01816887'
p4625
g2
(g6
S'\t\x05'
p4626
tp4627
Rp4628
sS'n03721384'
p4629
g2
(g6
S'S\x01'
p4630
tp4631
Rp4632
sS'n07747607'
p4633
g2
(g6
S'?\x01'
p4634
tp4635
Rp4636
sS'n03720891'
p4637
g2
(g6
S'R\x01'
p4638
tp4639
Rp4640
sS'n03813176'
p4641
g2
(g6
S'\x97\x05'
p4642
tp4643
Rp4644
sS'n07730033'
p4645
g2
(g6
S'\xe9\x02'
p4646
tp4647
Rp4648
sS'n03680355'
p4649
g2
(g6
S'\xcd\x03'
p4650
tp4651
Rp4652
sS'n04251144'
p4653
g2
(g6
S'\xfb\x01'
p4654
tp4655
Rp4656
sS'n02110627'
p4657
g2
(g75
S'\x7f'
p4658
tp4659
Rp4660
sS'n03405725'
p4661
g2
(g6
S't\x06'
p4662
tp4663
Rp4664
sS'n04273569'
p4665
g2
(g75
S'\xed'
p4666
tp4667
Rp4668
sS'n07716358'
p4669
g2
(g6
S'\xe3\x02'
p4670
tp4671
Rp4672
sS'n04151581'
p4673
g2
(g6
S'\n\x07'
p4674
tp4675
Rp4676
sS'n04270147'
p4677
g2
(g6
S'\xa4\x02'
p4678
tp4679
Rp4680
sS'n13809207'
p4681
g2
(g6
S'D\x07'
p4682
tp4683
Rp4684
sS'n04341414'
p4685
g2
(g6
S'\xde\x05'
p4686
tp4687
Rp4688
sS'n02489166'
p4689
g2
(g75
S'd'
p4690
tp4691
Rp4692
sS'n04217882'
p4693
g2
(g6
S'\xb8\x06'
p4694
tp4695
Rp4696
sS'n04360501'
p4697
g2
(g6
S'\xbc\x06'
p4698
tp4699
Rp4700
sS'n04019101'
p4701
g2
(g6
S'l\x06'
p4702
tp4703
Rp4704
sS'n09820263'
p4705
g2
(g6
S'3\x04'
p4706
tp4707
Rp4708
sS'n01802721'
p4709
g2
(g6
S'\xae\x04'
p4710
tp4711
Rp4712
sS'n01483522'
p4713
g2
(g6
S'Y\x05'
p4714
tp4715
Rp4716
sS'n03825788'
p4717
g2
(g6
S'\x93\x03'
p4718
tp4719
Rp4720
sS'n01735189'
p4721
g2
(g6
S'\xe2\x01'
p4722
tp4723
Rp4724
sS'n01828970'
p4725
g2
(g6
S'\x9d\x01'
p4726
tp4727
Rp4728
sS'n01877812'
p4729
g2
(g75
S'\xd8'
p4730
tp4731
Rp4732
sS'n04355933'
p4733
g2
(g6
S'>\x02'
p4734
tp4735
Rp4736
sS'n07742704'
p4737
g2
(g6
S'#\x04'
p4738
tp4739
Rp4740
sS'n04591713'
p4741
g2
(g6
S'?\x03'
p4742
tp4743
Rp4744
sS'n01822602'
p4745
g2
(g6
S'\x0c\x05'
p4746
tp4747
Rp4748
sS'n03961939'
p4749
g2
(g6
S'4\x07'
p4750
tp4751
Rp4752
sS'n03528263'
p4753
g2
(g6
S'\x1b\x07'
p4754
tp4755
Rp4756
sS'n02097130'
p4757
g2
(g75
S'$'
p4758
tp4759
Rp4760
sS'n02963159'
p4761
g2
(g6
S'D\x03'
p4762
tp4763
Rp4764
sS'n03100346'
p4765
g2
(g6
S'\x81\x06'
p4766
tp4767
Rp4768
sS'n04371430'
p4769
g2
(g6
S'\xb1\x03'
p4770
tp4771
Rp4772
sS'n00007846'
p4773
g2
(g6
S'0\x04'
p4774
tp4775
Rp4776
sS'n01774384'
p4777
g2
(g6
S'_\x02'
p4778
tp4779
Rp4780
sS'n07579787'
p4781
g2
(g6
S'\xf2\x02'
p4782
tp4783
Rp4784
sS'n01621127'
p4785
g2
(g6
S'\x07\x05'
p4786
tp4787
Rp4788
sS'n02063224'
p4789
g2
(g6
S'\xda\x04'
p4790
tp4791
Rp4792
sS'n02820210'
p4793
g2
(g6
S'\xd3\x06'
p4794
tp4795
Rp4796
sS'n02114855'
p4797
g2
(g75
S':'
p4798
tp4799
Rp4800
sS'n02246011'
p4801
g2
(g6
S't\x04'
p4802
tp4803
Rp4804
sS'n07717556'
p4805
g2
(g6
S'\xe6\x02'
p4806
tp4807
Rp4808
sS'n03852280'
p4809
g2
(g6
S'\x99\x05'
p4810
tp4811
Rp4812
sS'n02268148'
p4813
g2
(g6
S'v\x04'
p4814
tp4815
Rp4816
sS'n03932203'
p4817
g2
(g6
S'6\x07'
p4818
tp4819
Rp4820
sS'n03814906'
p4821
g2
(g6
S'\xf3\x02'
p4822
tp4823
Rp4824
sS'n02089078'
p4825
g2
(g75
S'*'
p4826
tp4827
Rp4828
sS'n03884397'
p4829
g2
(g6
S'`\x01'
p4830
tp4831
Rp4832
sS'n03908714'
p4833
g2
(g6
S'R\x03'
p4834
tp4835
Rp4836
sS'n02114100'
p4837
g2
(g6
S'\xcc\x04'
p4838
tp4839
Rp4840
sS'n03259505'
p4841
g2
(g6
S'\xab\x06'
p4842
tp4843
Rp4844
sS'n03797390'
p4845
g2
(g6
S'(\x06'
p4846
tp4847
Rp4848
sS'n02877765'
p4849
g2
(g6
S'\x0b\x03'
p4850
tp4851
Rp4852
sS'n02764044'
p4853
g2
(g6
S'\xe8\x05'
p4854
tp4855
Rp4856
sS'n01524359'
p4857
g2
(g6
S'\xfc\x04'
p4858
tp4859
Rp4860
sS'n04222847'
p4861
g2
(g6
S'~\x05'
p4862
tp4863
Rp4864
sS'n02085374'
p4865
g2
(g6
S'\xa8\x04'
p4866
tp4867
Rp4868
sS'n04409515'
p4869
g2
(g6
S'\xca\x03'
p4870
tp4871
Rp4872
sS'n04523525'
p4873
g2
(g6
S'\xde\x03'
p4874
tp4875
Rp4876
sS'n03916720'
p4877
g2
(g6
S'J\x06'
p4878
tp4879
Rp4880
sS'n03980874'
p4881
g2
(g6
S'W\x03'
p4882
tp4883
Rp4884
sS'n03131574'
p4885
g2
(g6
S'*\x01'
p4886
tp4887
Rp4888
sS'n03250847'
p4889
g2
(g6
S'\x1f\x03'
p4890
tp4891
Rp4892
sS'n03714235'
p4893
g2
(g6
S'T\x06'
p4894
tp4895
Rp4896
sS'n03211117'
p4897
g2
(g6
S'\x88\x05'
p4898
tp4899
Rp4900
sS'n02480495'
p4901
g2
(g75
S'S'
p4902
tp4903
Rp4904
sS'n04599235'
p4905
g2
(g6
S'/\x03'
p4906
tp4907
Rp4908
sS'n03866082'
p4909
g2
(g6
S'\xa9\x03'
p4910
tp4911
Rp4912
sS'n02008041'
p4913
g2
(g6
S'\x1a\x05'
p4914
tp4915
Rp4916
sS'n01592084'
p4917
g2
(g6
S'\x8b\x01'
p4918
tp4919
Rp4920
sS'n02437616'
p4921
g2
(g75
S'\xba'
p4922
tp4923
Rp4924
sS'n03051540'
p4925
g2
(g6
S'\xd6\x06'
p4926
tp4927
Rp4928
sS'n07739506'
p4929
g2
(g6
S'"\x04'
p4930
tp4931
Rp4932
sS'n02397096'
p4933
g2
(g75
S'x'
p4934
tp4935
Rp4936
sS'n01674216'
p4937
g2
(g6
S'0\x05'
p4938
tp4939
Rp4940
sS'n03063689'
p4941
g2
(g6
S'\xa2\x02'
p4942
tp4943
Rp4944
sS'n02605316'
p4945
g2
(g6
S'f\x05'
p4946
tp4947
Rp4948
sS'n04137444'
p4949
g2
(g6
S'D\x06'
p4950
tp4951
Rp4952
sS'n02917067'
p4953
g2
(g6
S'w\x03'
p4954
tp4955
Rp4956
sS'n02730265'
p4957
g2
(g6
S'\x81\x05'
p4958
tp4959
Rp4960
sS'n04170037'
p4961
g2
(g6
S'\t\x06'
p4962
tp4963
Rp4964
sS'n02785648'
p4965
g2
(g6
S'\xd1\x06'
p4966
tp4967
Rp4968
sS'n02374451'
p4969
g2
(g6
S'\xde\x04'
p4970
tp4971
Rp4972
sS'n04417809'
p4973
g2
(g6
S'\x9b\x06'
p4974
tp4975
Rp4976
sS'n00019128'
p4977
g2
(g6
S'H\x04'
p4978
tp4979
Rp4980
sS'n03178782'
p4981
g2
(g6
S')\x07'
p4982
tp4983
Rp4984
sS'n04254120'
p4985
g2
(g6
S'\xc0\x03'
p4986
tp4987
Rp4988
sS'n01466257'
p4989
g2
(g6
S'\xb2\x04'
p4990
tp4991
Rp4992
sS'n03947888'
p4993
g2
(g75
S'\xf5'
p4994
tp4995
Rp4996
sS'n03454707'
p4997
g2
(g6
S'\xb2\x06'
p4998
tp4999
Rp5000
sS'n03325584'
p5001
g2
(g6
S'\x1c\x03'
p5002
tp5003
Rp5004
sS'n03133538'
p5005
g2
(g6
S'1\x07'
p5006
tp5007
Rp5008
sS'n02129165'
p5009
g2
(g75
S'\xbe'
p5010
tp5011
Rp5012
sS'n03665366'
p5013
g2
(g6
S'\xd9\x05'
p5014
tp5015
Rp5016
sS'n04401088'
p5017
g2
(g6
S'L\x06'
p5018
tp5019
Rp5020
sS'n01685808'
p5021
g2
(g6
S'\xd2\x01'
p5022
tp5023
Rp5024
sS'n04346328'
p5025
g2
(g6
S'\xb4\x02'
p5026
tp5027
Rp5028
sS'n02102973'
p5029
g2
(g75
S'u'
p5030
tp5031
Rp5032
sS'n02788148'
p5033
g2
(g6
S'\xce\x02'
p5034
tp5035
Rp5036
sS'n09835506'
p5037
g2
(g6
S'\xba\x03'
p5038
tp5039
Rp5040
sS'n03430959'
p5041
g2
(g6
S'@\x06'
p5042
tp5043
Rp5044
sS'n07710283'
p5045
g2
(g6
S')\x04'
p5046
tp5047
Rp5048
sS'n04208210'
p5049
g2
(g6
S'|\x01'
p5050
tp5051
Rp5052
sS'n01976957'
p5053
g2
(g6
S'h\x04'
p5054
tp5055
Rp5056
sS'n01494475'
p5057
g2
(g6
S'\xbc\x01'
p5058
tp5059
Rp5060
sS'n02090827'
p5061
g2
(g6
S'\x9a\x04'
p5062
tp5063
Rp5064
sS'n03933933'
p5065
g2
(g6
S'T\x02'
p5066
tp5067
Rp5068
sS'n03603722'
p5069
g2
(g6
S'#\x06'
p5070
tp5071
Rp5072
sS'n13899200'
p5073
g2
(g6
S';\x07'
p5074
tp5075
Rp5076
sS'n02688443'
p5077
g2
(g6
S'\x80\x05'
p5078
tp5079
Rp5080
sS'n04604644'
p5081
g2
(g6
S'\xd3\x02'
p5082
tp5083
Rp5084
sS'n04362025'
p5085
g2
(g6
S'2\x07'
p5086
tp5087
Rp5088
sS'n02814860'
p5089
g2
(g6
S'\xdd\x02'
p5090
tp5091
Rp5092
sS'n02099429'
p5093
g2
(g75
S'\x90'
p5094
tp5095
Rp5096
sS'n01644900'
p5097
g2
(g6
S'\xf5\x01'
p5098
tp5099
Rp5100
sS'n12057211'
p5101
g2
(g6
S'f\x01'
p5102
tp5103
Rp5104
sS'n02279637'
p5105
g2
(g6
S'z\x04'
p5106
tp5107
Rp5108
sS'n01740131'
p5109
g2
(g6
S'\xe5\x01'
p5110
tp5111
Rp5112
sS'n02229544'
p5113
g2
(g6
S'x\x02'
p5114
tp5115
Rp5116
sS'n03327234'
p5117
g2
(g6
S'\xb0\x06'
p5118
tp5119
Rp5120
sS'n03074380'
p5121
g2
(g6
S'\x9f\x06'
p5122
tp5123
Rp5124
sS'n02102605'
p5125
g2
(g6
S'\x8d\x04'
p5126
tp5127
Rp5128
sS'n03461385'
p5129
g2
(g6
S'\xbf\x02'
p5130
tp5131
Rp5132
sS'n01688243'
p5133
g2
(g6
S'\xd4\x01'
p5134
tp5135
Rp5136
sS'n02124075'
p5137
g2
(g75
S'\x08'
p5138
tp5139
Rp5140
sS'n04067472'
p5141
g2
(g6
S':\x02'
p5142
tp5143
Rp5144
sS'n04340750'
p5145
g2
(g6
S'/\x06'
p5146
tp5147
Rp5148
sS'n02740764'
p5149
g2
(g6
S'\x03\x07'
p5150
tp5151
Rp5152
sS'n03673027'
p5153
g2
(g75
S'\xf4'
p5154
tp5155
Rp5156
sS'n04536866'
p5157
g2
(g6
S'W\x01'
p5158
tp5159
Rp5160
sS'n04584207'
p5161
g2
(g6
S'\x83\x03'
p5162
tp5163
Rp5164
sS'n02796623'
p5165
g2
(g6
S'\xaf\x06'
p5166
tp5167
Rp5168
sS'n02801938'
p5169
g2
(g6
S'\x17\x06'
p5170
tp5171
Rp5172
sS'n02104365'
p5173
g2
(g75
S'D'
p5174
tp5175
Rp5176
sS'n03207743'
p5177
g2
(g6
S'5\x03'
p5178
tp5179
Rp5180
sS'n01518878'
p5181
g2
(g6
S'\x81\x01'
p5182
tp5183
Rp5184
sS'n02131653'
p5185
g2
(g6
S'\xc5\x04'
p5186
tp5187
Rp5188
sS'n02503127'
p5189
g2
(g6
S'\xc2\x04'
p5190
tp5191
Rp5192
sS'n01557185'
p5193
g2
(g6
S'\x00\x05'
p5194
tp5195
Rp5196
sS'n03998194'
p5197
g2
(g6
S'\x01\x03'
p5198
tp5199
Rp5200
sS'n02443114'
p5201
g2
(g75
S'\xb6'
p5202
tp5203
Rp5204
sS'n07715721'
p5205
g2
(g6
S'-\x04'
p5206
tp5207
Rp5208
sS'n03223299'
p5209
g2
(g6
S'\xcc\x03'
p5210
tp5211
Rp5212
sS'n04146614'
p5213
g2
(g6
S'\xc2\x03'
p5214
tp5215
Rp5216
sS'n02118333'
p5217
g2
(g6
S'\xcb\x04'
p5218
tp5219
Rp5220
sS'n03739693'
p5221
g2
(g6
S'\x96\x05'
p5222
tp5223
Rp5224
sS'n00031921'
p5225
g2
(g6
S'C\x07'
p5226
tp5227
Rp5228
sS'n03478589'
p5229
g2
(g75
S'\xf9'
p5230
tp5231
Rp5232
sS'n13086908'
p5233
g2
(g6
S'K\x04'
p5234
tp5235
Rp5236
sS'n02105162'
p5237
g2
(g75
S'3'
p5238
tp5239
Rp5240
sS'n04597913'
p5241
g2
(g6
S'\xb7\x03'
p5242
tp5243
Rp5244
sS'n02860847'
p5245
g2
(g75
S'\xfc'
p5246
tp5247
Rp5248
sS'n02804414'
p5249
g2
(g6
S'(\x01'
p5250
tp5251
Rp5252
sS'n01630670'
p5253
g2
(g6
S'\xef\x01'
p5254
tp5255
Rp5256
sS'n03050026'
p5257
g2
(g6
S'\xcf\x06'
p5258
tp5259
Rp5260
sS'n09816771'
p5261
g2
(g6
S'7\x04'
p5262
tp5263
Rp5264
sS'n07753113'
p5265
g2
(g6
S'A\x01'
p5266
tp5267
Rp5268
sS'n04120093'
p5269
g2
(g6
S'\xd4\x05'
p5270
tp5271
Rp5272
sS'n01910747'
p5273
g2
(g6
S'\x87\x02'
p5274
tp5275
Rp5276
sS'n06874019'
p5277
g2
(g6
S'B\x07'
p5278
tp5279
Rp5280
sS'n03337140'
p5281
g2
(g6
S'1\x01'
p5282
tp5283
Rp5284
sS'n07681926'
p5285
g2
(g6
S'\xf3\x03'
p5286
tp5287
Rp5288
sS'n03787032'
p5289
g2
(g6
S'V\x03'
p5290
tp5291
Rp5292
sS'n03188531'
p5293
g2
(g6
S'\xc6\x03'
p5294
tp5295
Rp5296
sS'n04589190'
p5297
g2
(g6
S'\x08\x07'
p5298
tp5299
Rp5300
sS'n02791270'
p5301
g2
(g6
S'\xc1\x02'
p5302
tp5303
Rp5304
sS'n02099997'
p5305
g2
(g6
S'\x8a\x04'
p5306
tp5307
Rp5308
sS'n04438304'
p5309
g2
(g6
S'\x95\x05'
p5310
tp5311
Rp5312
sS'n02281406'
p5313
g2
(g6
S'\x85\x02'
p5314
tp5315
Rp5316
sS'n07609840'
p5317
g2
(g6
S'\x06\x04'
p5318
tp5319
Rp5320
sS'n02480153'
p5321
g2
(g6
S'\xbd\x04'
p5322
tp5323
Rp5324
sS'n02077923'
p5325
g2
(g75
S'\x0e'
p5326
tp5327
Rp5328
sS'n07891726'
p5329
g2
(g6
S'\x0e\x04'
p5330
tp5331
Rp5332
sS'n01974773'
p5333
g2
(g6
S'e\x04'
p5334
tp5335
Rp5336
sS'n04086273'
p5337
g2
(g75
S'\xdb'
p5338
tp5339
Rp5340
sS'n07579575'
p5341
g2
(g6
S'\x05\x04'
p5342
tp5343
Rp5344
sS'n02171869'
p5345
g2
(g6
S'n\x04'
p5346
tp5347
Rp5348
sS'n02109811'
p5349
g2
(g6
S'\xa3\x04'
p5350
tp5351
Rp5352
sS'n01674990'
p5353
g2
(g6
S'2\x05'
p5354
tp5355
Rp5356
sS'n03124043'
p5357
g2
(g6
S'\x8e\x03'
p5358
tp5359
Rp5360
sS'n02031934'
p5361
g2
(g6
S'"\x05'
p5362
tp5363
Rp5364
sS'n01775062'
p5365
g2
(g6
S'a\x02'
p5366
tp5367
Rp5368
sS'n03100240'
p5369
g2
(g6
S'\x0c\x01'
p5370
tp5371
Rp5372
sS'n12620546'
p5373
g2
(g6
S'H\x01'
p5374
tp5375
Rp5376
sS'n03727837'
p5377
g2
(g6
S'\xd5\x06'
p5378
tp5379
Rp5380
sS'n03141823'
p5381
g2
(g6
S'X\x03'
p5382
tp5383
Rp5384
sS'n03613592'
p5385
g2
(g6
S'\x02\x06'
p5386
tp5387
Rp5388
sS'n03903868'
p5389
g2
(g6
S'\xdc\x02'
p5390
tp5391
Rp5392
sS'n03417042'
p5393
g2
(g6
S'\x18\x01'
p5394
tp5395
Rp5396
sS'n02469914'
p5397
g2
(g6
S'\xb9\x04'
p5398
tp5399
Rp5400
sS'n02066245'
p5401
g2
(g75
S'\x06'
p5402
tp5403
Rp5404
sS'n01905661'
p5405
g2
(g6
S'`\x04'
p5406
tp5407
Rp5408
sS'n02686568'
p5409
g2
(g6
S'X\x06'
p5410
tp5411
Rp5412
sS'n09613191'
p5413
g2
(g6
S'1\x04'
p5414
tp5415
Rp5416
sS'n07684084'
p5417
g2
(g6
S'i\x03'
p5418
tp5419
Rp5420
sS'n02999410'
p5421
g2
(g6
S';\x03'
p5422
tp5423
Rp5424
sS'n03085013'
p5425
g2
(g6
S'\x1f\x02'
p5426
tp5427
Rp5428
sS'n04608567'
p5429
g2
(g6
S'\xfc\x05'
p5430
tp5431
Rp5432
sS'n02786058'
p5433
g2
(g6
S'\xc7\x03'
p5434
tp5435
Rp5436
sS'n07713395'
p5437
g2
(g6
S'*\x04'
p5438
tp5439
Rp5440
sS'n04004767'
p5441
g2
(g6
S',\x02'
p5442
tp5443
Rp5444
sS'n04317175'
p5445
g2
(g6
S'\x12\x02'
p5446
tp5447
Rp5448
sS'n03366823'
p5449
g2
(g6
S'\xd4\x06'
p5450
tp5451
Rp5452
sS'n04398044'
p5453
g2
(g6
S'\xa3\x02'
p5454
tp5455
Rp5456
sS'n03380867'
p5457
g2
(g6
S'\xcc\x06'
p5458
tp5459
Rp5460
sS'n02823750'
p5461
g2
(g6
S'+\x03'
p5462
tp5463
Rp5464
sS'n04516672'
p5465
g2
(g6
S'\xef\x05'
p5466
tp5467
Rp5468
sS'n02759963'
p5469
g2
(g6
S'\xa5\x05'
p5470
tp5471
Rp5472
sS'n03753077'
p5473
g2
(g6
S'\x90\x05'
p5474
tp5475
Rp5476
sS'n03891251'
p5477
g2
(g6
S'2\x01'
p5478
tp5479
Rp5480
sS'n03670208'
p5481
g2
(g6
S'\x0e\x01'
p5482
tp5483
Rp5484
sS'n03220513'
p5485
g2
(g6
S'\x81\x03'
p5486
tp5487
Rp5488
sS'n03025886'
p5489
g2
(g6
S'u\x05'
p5490
tp5491
Rp5492
sS'n01591697'
p5493
g2
(g6
S'\x03\x05'
p5494
tp5495
Rp5496
sS'n03725035'
p5497
g2
(g6
S'\r\x07'
p5498
tp5499
Rp5500
sS'n03467984'
p5501
g2
(g6
S'\xa3\x05'
p5502
tp5503
Rp5504
sS'n04187061'
p5505
g2
(g6
S'\x0f\x07'
p5506
tp5507
Rp5508
sS'n02858304'
p5509
g2
(g6
S']\x06'
p5510
tp5511
Rp5512
sS'n03950228'
p5513
g2
(g6
S'\xd7\x03'
p5514
tp5515
Rp5516
sS'n13138842'
p5517
g2
(g6
S'S\x04'
p5518
tp5519
Rp5520
sS'n02939185'
p5521
g2
(g6
S'\xa1\x02'
p5522
tp5523
Rp5524
sS'n03945615'
p5525
g2
(g6
S'z\x05'
p5526
tp5527
Rp5528
sS'n01737021'
p5529
g2
(g6
S'\xe3\x01'
p5530
tp5531
Rp5532
sS'n02794156'
p5533
g2
(g6
S'\x06\x02'
p5534
tp5535
Rp5536
sS'n01669191'
p5537
g2
(g6
S'\xce\x01'
p5538
tp5539
Rp5540
sS'n04555897'
p5541
g2
(g6
S'\x92\x05'
p5542
tp5543
Rp5544
sS'n07683786'
p5545
g2
(g6
S'\xf2\x03'
p5546
tp5547
Rp5548
sS'n02108672'
p5549
g2
(g6
S'\xa6\x04'
p5550
tp5551
Rp5552
sS'n02978881'
p5553
g2
(g6
S'z\x03'
p5554
tp5555
Rp5556
sS'n02110185'
p5557
g2
(g75
S'\x03'
p5558
tp5559
Rp5560
sS'n02483092'
p5561
g2
(g6
S'\xbe\x04'
p5562
tp5563
Rp5564
sS'n02326432'
p5565
g2
(g75
S'\x81'
p5566
tp5567
Rp5568
sS'n02373336'
p5569
g2
(g6
S'\xdc\x04'
p5570
tp5571
Rp5572
sS'n01741562'
p5573
g2
(g6
S'D\x05'
p5574
tp5575
Rp5576
sS'n01818515'
p5577
g2
(g6
S'\x99\x01'
p5578
tp5579
Rp5580
sS'n03183080'
p5581
g2
(g6
S'n\x05'
p5582
tp5583
Rp5584
sS'n03535780'
p5585
g2
(g6
S'\x9c\x03'
p5586
tp5587
Rp5588
sS'n03722288'
p5589
g2
(g6
S'\xa8\x06'
p5590
tp5591
Rp5592
sS'n03877845'
p5593
g2
(g6
S'\xad\x02'
p5594
tp5595
Rp5596
sS'n04470953'
p5597
g2
(g6
S'\x85\x05'
p5598
tp5599
Rp5600
sS'n02094114'
p5601
g2
(g75
S'X'
p5602
tp5603
Rp5604
sS'n01529672'
p5605
g2
(g6
S'\xfe\x04'
p5606
tp5607
Rp5608
sS'n02256656'
p5609
g2
(g6
S'|\x02'
p5610
tp5611
Rp5612
sS'n03062245'
p5613
g2
(g6
S'\xf9\x02'
p5614
tp5615
Rp5616
sS'n04483307'
p5617
g2
(g75
S'\xf2'
p5618
tp5619
Rp5620
sS'n02068974'
p5621
g2
(g6
S'\xd9\x04'
p5622
tp5623
Rp5624
sS'n02087394'
p5625
g2
(g75
S'\xc8'
p5626
tp5627
Rp5628
sS'n02395003'
p5629
g2
(g6
S'\xec\x04'
p5630
tp5631
Rp5632
sS'n02074367'
p5633
g2
(g75
S'\xc1'
p5634
tp5635
Rp5636
sS'n02093056'
p5637
g2
(g6
S'\x95\x04'
p5638
tp5639
Rp5640
sS'n02108254'
p5641
g2
(g6
S'\xa5\x04'
p5642
tp5643
Rp5644
sS'n02062430'
p5645
g2
(g6
S'\xd6\x04'
p5646
tp5647
Rp5648
sS'n02087551'
p5649
g2
(g6
S'\x96\x04'
p5650
tp5651
Rp5652
sS'n04192698'
p5653
g2
(g6
S' \x03'
p5654
tp5655
Rp5656
sS'n07583197'
p5657
g2
(g6
S'\x00\x04'
p5658
tp5659
Rp5660
sS'n04366367'
p5661
g2
(g6
S'\xa9\x02'
p5662
tp5663
Rp5664
sS'n07557434'
p5665
g2
(g6
S'\xfe\x03'
p5666
tp5667
Rp5668
sS'n02483362'
p5669
g2
(g75
S'\xb9'
p5670
tp5671
Rp5672
sS'n02946921'
p5673
g2
(g6
S')\x06'
p5674
tp5675
Rp5676
sS'n01770393'
p5677
g2
(g6
S'[\x02'
p5678
tp5679
Rp5680
sS'n02086478'
p5681
g2
(g6
S'\xaa\x04'
p5682
tp5683
Rp5684
sS'n02107574'
p5685
g2
(g75
S'r'
p5686
tp5687
Rp5688
sS'n03498962'
p5689
g2
(g6
S'q\x01'
p5690
tp5691
Rp5692
sS'n04200800'
p5693
g2
(g6
S'\xc5\x02'
p5694
tp5695
Rp5696
sS'n01819313'
p5697
g2
(g6
S'\x9a\x01'
p5698
tp5699
Rp5700
sS'n07875152'
p5701
g2
(g6
S'>\x03'
p5702
tp5703
Rp5704
sS'n06785654'
p5705
g2
(g6
S'\x17\x03'
p5706
tp5707
Rp5708
sS'n04265275'
p5709
g2
(g6
S'\x03\x02'
p5710
tp5711
Rp5712
sS'n03248958'
p5713
g2
(g6
S'\x13\x04'
p5714
tp5715
Rp5716
sS'n02417534'
p5717
g2
(g6
S'\xe8\x04'
p5718
tp5719
Rp5720
sS'n01496331'
p5721
g2
(g6
S'\xbd\x01'
p5722
tp5723
Rp5724
sS'n03748162'
p5725
g2
(g6
S'\xa7\x06'
p5726
tp5727
Rp5728
sS'n01770081'
p5729
g2
(g6
S'Z\x02'
p5730
tp5731
Rp5732
sS'n03388043'
p5733
g2
(g6
S'\xc8\x02'
p5734
tp5735
Rp5736
sS'n02101108'
p5737
g2
(g6
S'\x8c\x04'
p5738
tp5739
Rp5740
sS'n03551084'
p5741
g2
(g6
S'\xce\x05'
p5742
tp5743
Rp5744
sS'n02837789'
p5745
g2
(g6
S'\xd9\x03'
p5746
tp5747
Rp5748
sS'n04371563'
p5749
g2
(g6
S'\xe1\x06'
p5750
tp5751
Rp5752
sS'n01924916'
p5753
g2
(g6
S'\x8a\x02'
p5754
tp5755
Rp5756
sS'n04580493'
p5757
g2
(g6
S'\x1f\x07'
p5758
tp5759
Rp5760
sS'n03953020'
p5761
g2
(g6
S'\xa6\x06'
p5762
tp5763
Rp5764
sS'n02408429'
p5765
g2
(g75
S'\xa2'
p5766
tp5767
Rp5768
sS'n02097209'
p5769
g2
(g75
S'\x9c'
p5770
tp5771
Rp5772
sS'n03018349'
p5773
g2
(g6
S'-\x01'
p5774
tp5775
Rp5776
sS'n03843555'
p5777
g2
(g6
S'\x01\x02'
p5778
tp5779
Rp5780
sS'n01601694'
p5781
g2
(g6
S'\x8c\x01'
p5782
tp5783
Rp5784
sS'n07612996'
p5785
g2
(g6
S'\x08\x04'
p5786
tp5787
Rp5788
sS'n03700963'
p5789
g2
(g6
S'\xbc\x05'
p5790
tp5791
Rp5792
sS'n02480855'
p5793
g2
(g75
S'h'
p5794
tp5795
Rp5796
sS'n02667093'
p5797
g2
(g6
S'U\x03'
p5798
tp5799
Rp5800
sS'n03271574'
p5801
g2
(g6
S'\x00\x02'
p5802
tp5803
Rp5804
sS'n08620061'
p5805
g2
(g6
S'D\x04'
p5806
tp5807
Rp5808
sS'n03906997'
p5809
g2
(g6
S'\xfd\x05'
p5810
tp5811
Rp5812
sS'n09433442'
p5813
g2
(g6
S'A\x04'
p5814
tp5815
Rp5816
sS'n01845477'
p5817
g2
(g6
S'\x13\x05'
p5818
tp5819
Rp5820
sS'n02687172'
p5821
g2
(g75
S'\xf6'
p5822
tp5823
Rp5824
sS'n01578575'
p5825
g2
(g6
S'\x02\x05'
p5826
tp5827
Rp5828
sS'n02891188'
p5829
g2
(g6
S'\xcd\x05'
p5830
tp5831
Rp5832
sS'n02457408'
p5833
g2
(g75
S'&'
p5834
tp5835
Rp5836
sS'n13087625'
p5837
g2
(g6
S'L\x04'
p5838
tp5839
Rp5840
sS'n04493381'
p5841
g2
(g6
S'\xfd\x02'
p5842
tp5843
Rp5844
sS'n02799071'
p5845
g2
(g6
S"'\x03"
p5846
tp5847
Rp5848
sS'n02280458'
p5849
g2
(g6
S'{\x04'
p5850
tp5851
Rp5852
sS'n02076196'
p5853
g2
(g6
S'\xd4\x04'
p5854
tp5855
Rp5856
sS'n01881171'
p5857
g2
(g6
S'\xf8\x04'
p5858
tp5859
Rp5860
sS'n02879718'
p5861
g2
(g6
S'\x1a\x02'
p5862
tp5863
Rp5864
sS'n04019541'
p5865
g2
(g6
S'<\x02'
p5866
tp5867
Rp5868
sS'n02486261'
p5869
g2
(g75
S'\x87'
p5870
tp5871
Rp5872
sS'n03682487'
p5873
g2
(g6
S'\xd1\x05'
p5874
tp5875
Rp5876
sS'n03815615'
p5877
g2
(g6
S'\xe5\x06'
p5878
tp5879
Rp5880
sS'n04591157'
p5881
g2
(g6
S'\xa7\x03'
p5882
tp5883
Rp5884
sS'n03529860'
p5885
g2
(g6
S'\xb8\x02'
p5886
tp5887
Rp5888
sS'n04550840'
p5889
g2
(g6
S'-\x07'
p5890
tp5891
Rp5892
sS'n02384858'
p5893
g2
(g6
S'\xb1\x04'
p5894
tp5895
Rp5896
sS'n02795169'
p5897
g2
(g6
S'\x89\x03'
p5898
tp5899
Rp5900
sS'n00001930'
p5901
g2
(g6
S'\xea\x03'
p5902
tp5903
Rp5904
sS'n03257586'
p5905
g2
(g6
S'O\x06'
p5906
tp5907
Rp5908
sS'n01858441'
p5909
g2
(g6
S'\x17\x05'
p5910
tp5911
Rp5912
sS'n02880546'
p5913
g2
(g6
S't\x05'
p5914
tp5915
Rp5916
sS'n02407959'
p5917
g2
(g6
S'\xe9\x04'
p5918
tp5919
Rp5920
sS'n01491361'
p5921
g2
(g6
S'\xbb\x01'
p5922
tp5923
Rp5924
sS'n07712382'
p5925
g2
(g6
S'\x01\x04'
p5926
tp5927
Rp5928
sS'n02877962'
p5929
g2
(g6
S'\xee\x05'
p5930
tp5931
Rp5932
sS'n06589574'
p5933
g2
(g6
S'\xc1\x06'
p5934
tp5935
Rp5936
sS'n01803078'
p5937
g2
(g6
S'\xaf\x04'
p5938
tp5939
Rp5940
sS'n03896233'
p5941
g2
(g6
S'n\x06'
p5942
tp5943
Rp5944
sS'n01772222'
p5945
g2
(g6
S'c\x04'
p5946
tp5947
Rp5948
sS'n01854415'
p5949
g2
(g6
S'\x16\x05'
p5950
tp5951
Rp5952
sS'n03309808'
p5953
g2
(g6
S'\xc5\x06'
p5954
tp5955
Rp5956
sS'n01922303'
p5957
g2
(g6
S'\x80\x04'
p5958
tp5959
Rp5960
sS'n03425413'
p5961
g2
(g6
S'7\x02'
p5962
tp5963
Rp5964
sS'n04037443'
p5965
g2
(g6
S'\x11\x01'
p5966
tp5967
Rp5968
sS'n02669723'
p5969
g2
(g6
S'\x80\x03'
p5970
tp5971
Rp5972
sS'n02127808'
p5973
g2
(g6
S'\xd0\x04'
p5974
tp5975
Rp5976
sS'n03876231'
p5977
g2
(g6
S'\xf8\x01'
p5978
tp5979
Rp5980
sS'n04476259'
p5981
g2
(g6
S'\xfe\x02'
p5982
tp5983
Rp5984
sS'n04033901'
p5985
g2
(g6
S'^\x03'
p5986
tp5987
Rp5988
sS'n02134084'
p5989
g2
(g75
S'g'
p5990
tp5991
Rp5992
sS'n02503517'
p5993
g2
(g6
S'\xc3\x04'
p5994
tp5995
Rp5996
sS'n09443453'
p5997
g2
(g6
S'B\x04'
p5998
tp5999
Rp6000
sS'n03837869'
p6001
g2
(g6
S'\xbb\x02'
p6002
tp6003
Rp6004
sS'n04069434'
p6005
g2
(g6
S'\xc5\x03'
p6006
tp6007
Rp6008
sS'n01749939'
p6009
g2
(g6
S'\xe9\x01'
p6010
tp6011
Rp6012
sS'n02681518'
p6013
g2
(g6
S"'\x07"
p6014
tp6015
Rp6016
sS'n02880940'
p6017
g2
(g6
S'\x1c\x06'
p6018
tp6019
Rp6020
sS'n03314780'
p6021
g2
(g6
S'(\x03'
p6022
tp6023
Rp6024
sS'n03236735'
p6025
g2
(g6
S'\xff\x06'
p6026
tp6027
Rp6028
sS'n03814639'
p6029
g2
(g6
S'S\x02'
p6030
tp6031
Rp6032
sS'n04286575'
p6033
g2
(g6
S'Q\x02'
p6034
tp6035
Rp6036
sS'n03942813'
p6037
g2
(g6
S'I\x03'
p6038
tp6039
Rp6040
sS'n03495258'
p6041
g2
(g6
S'X\x01'
p6042
tp6043
Rp6044
sS'n04557648'
p6045
g2
(g6
S'\xbe\x03'
p6046
tp6047
Rp6048
sS'n03661043'
p6049
g2
(g6
S'\xaf\x02'
p6050
tp6051
Rp6052
sS'n02119789'
p6053
g2
(g75
S'\x01'
p6054
tp6055
Rp6056
sS'n03376595'
p6057
g2
(g6
S'5\x01'
p6058
tp6059
Rp6060
sS'n01983048'
p6061
g2
(g6
S'j\x04'
p6062
tp6063
Rp6064
sS'n03527444'
p6065
g2
(g6
S'\x13\x03'
p6066
tp6067
Rp6068
sS'n03697007'
p6069
g2
(g6
S'\xb9\x02'
p6070
tp6071
Rp6072
sS'n03877472'
p6073
g2
(g6
S'\xf7\x02'
p6074
tp6075
Rp6076
sS'n02821943'
p6077
g2
(g6
S'v\x06'
p6078
tp6079
Rp6080
sS'n02422106'
p6081
g2
(g75
S'A'
p6082
tp6083
Rp6084
sS'n02088632'
p6085
g2
(g75
S'\xb4'
p6086
tp6087
Rp6088
sS'n01661091'
p6089
g2
(g6
S'*\x05'
p6090
tp6091
Rp6092
sS'n04434932'
p6093
g2
(g6
S'\xf8\x06'
p6094
tp6095
Rp6096
sS'n02422699'
p6097
g2
(g75
S'9'
p6098
tp6099
Rp6100
sS'n03000134'
p6101
g2
(g6
S'\xd1\x02'
p6102
tp6103
Rp6104
sS'n02085936'
p6105
g2
(g75
S'W'
p6106
tp6107
Rp6108
sS'n03597469'
p6109
g2
(g6
S'(\x07'
p6110
tp6111
Rp6112
sS'n02398521'
p6113
g2
(g75
S'\xa7'
p6114
tp6115
Rp6116
sS'n01699831'
p6117
g2
(g6
S'<\x05'
p6118
tp6119
Rp6120
sS'n01755581'
p6121
g2
(g6
S'\xec\x01'
p6122
tp6123
Rp6124
sS'n01824575'
p6125
g2
(g6
S'\x9c\x01'
p6126
tp6127
Rp6128
sS'n03494278'
p6129
g2
(g6
S'^\x01'
p6130
tp6131
Rp6132
sS'n04099969'
p6133
g2
(g6
S'6\x01'
p6134
tp6135
Rp6136
sS'n04515129'
p6137
g2
(g6
S'\xdf\x05'
p6138
tp6139
Rp6140
sS'n01745125'
p6141
g2
(g6
S'G\x05'
p6142
tp6143
Rp6144
sS'n02268443'
p6145
g2
(g6
S'\x7f\x02'
p6146
tp6147
Rp6148
sS'n02977058'
p6149
g2
(g6
S'$\x02'
p6150
tp6151
Rp6152
sS'n02103406'
p6153
g2
(g6
S'\x9e\x04'
p6154
tp6155
Rp6156
sS'n03028079'
p6157
g2
(g6
S'\xb2\x02'
p6158
tp6159
Rp6160
sS'n02107142'
p6161
g2
(g75
S'p'
p6162
tp6163
Rp6164
sS'n02500267'
p6165
g2
(g75
S'K'
p6166
tp6167
Rp6168
sS'n12997654'
p6169
g2
(g6
S'^\x04'
p6170
tp6171
Rp6172
sS'n02777292'
p6173
g2
(g6
S'\xff\x02'
p6174
tp6175
Rp6176
sS'n02111500'
p6177
g2
(g75
S'\xac'
p6178
tp6179
Rp6180
sS'n01806567'
p6181
g2
(g6
S'\x96\x01'
p6182
tp6183
Rp6184
sS'n07760859'
p6185
g2
(g6
S'E\x01'
p6186
tp6187
Rp6188
sS'n03638321'
p6189
g2
(g6
S'\xac\x06'
p6190
tp6191
Rp6192
sS'n07566340'
p6193
g2
(g6
S'\xee\x03'
p6194
tp6195
Rp6196
sS'n02002724'
p6197
g2
(g6
S'\xa7\x01'
p6198
tp6199
Rp6200
sS'n02704792'
p6201
g2
(g6
S'\x08\x01'
p6202
tp6203
Rp6204
sS'n02007558'
p6205
g2
(g6
S'\xa9\x01'
p6206
tp6207
Rp6208
sS'n04285008'
p6209
g2
(g6
S'\x12\x01'
p6210
tp6211
Rp6212
sS'n02027492'
p6213
g2
(g6
S'\xb2\x01'
p6214
tp6215
Rp6216
sS'n01748264'
p6217
g2
(g6
S'\xe8\x01'
p6218
tp6219
Rp6220
sS'n03388549'
p6221
g2
(g6
S'+\x01'
p6222
tp6223
Rp6224
sS'n03032811'
p6225
g2
(g6
S'\xc2\x05'
p6226
tp6227
Rp6228
sS'n03485794'
p6229
g2
(g6
S'\xee\x02'
p6230
tp6231
Rp6232
sS'n01632777'
p6233
g2
(g6
S'\xf2\x01'
p6234
tp6235
Rp6236
sS'n00021265'
p6237
g2
(g6
S'\xed\x03'
p6238
tp6239
Rp6240
sS'n03414162'
p6241
g2
(g6
S':\x06'
p6242
tp6243
Rp6244
sS'n03110669'
p6245
g2
(g6
S'[\x01'
p6246
tp6247
Rp6248
sS'n02766320'
p6249
g2
(g6
S'u\x06'
p6250
tp6251
Rp6252
sS'n00004258'
p6253
g2
(g6
S'T\x04'
p6254
tp6255
Rp6256
sS'n04201297'
p6257
g2
(g6
S'@\x03'
p6258
tp6259
Rp6260
sS'n03985232'
p6261
g2
(g6
S'\xb4\x05'
p6262
tp6263
Rp6264
sS'n04500060'
p6265
g2
(g6
S'\xf5\x05'
p6266
tp6267
Rp6268
sS'n03692522'
p6269
g2
(g6
S'\x18\x02'
p6270
tp6271
Rp6272
sS'n02096756'
p6273
g2
(g6
S'\x94\x04'
p6274
tp6275
Rp6276
sS'n07693725'
p6277
g2
(g6
S'\x00\x03'
p6278
tp6279
Rp6280
sS'n02755352'
p6281
g2
(g6
S'q\x06'
p6282
tp6283
Rp6284
sS'n02051845'
p6285
g2
(g6
S'\xb7\x01'
p6286
tp6287
Rp6288
sS'n04379964'
p6289
g2
(g6
S'\x83\x06'
p6290
tp6291
Rp6292
sS'n03546340'
p6293
g2
(g6
S'\xaa\x06'
p6294
tp6295
Rp6296
sS'n02859443'
p6297
g2
(g6
S'\xb1\x02'
p6298
tp6299
Rp6300
sS'n02130308'
p6301
g2
(g75
S'\xce'
p6302
tp6303
Rp6304
sS'n04460130'
p6305
g2
(g6
S'\xbd\x06'
p6306
tp6307
Rp6308
sS'n02749479'
p6309
g2
(g6
S'\x1c\x02'
p6310
tp6311
Rp6312
sS'n03736970'
p6313
g2
(g6
S'\xbb\x05'
p6314
tp6315
Rp6316
sS'n03134853'
p6317
g2
(g6
S'8\x06'
p6318
tp6319
Rp6320
sS'n04338517'
p6321
g2
(g6
S's\x05'
p6322
tp6323
Rp6324
sS'n03620052'
p6325
g2
(g6
S'\x1c\x07'
p6326
tp6327
Rp6328
sS'n02992529'
p6329
g2
(g6
S'\x92\x03'
p6330
tp6331
Rp6332
sS'n03706653'
p6333
g2
(g6
S'\xc5\x05'
p6334
tp6335
Rp6336
sS'n03127747'
p6337
g2
(g6
S'\n\x03'
p6338
tp6339
Rp6340
sS'n07753592'
p6341
g2
(g6
S'C\x01'
p6342
tp6343
Rp6344
sS'n02827606'
p6345
g2
(g6
S'\xdc\x06'
p6346
tp6347
Rp6348
sS'n02898711'
p6349
g2
(g6
S'\x91\x06'
p6350
tp6351
Rp6352
sS'n12056217'
p6353
g2
(g6
S'\\\x04'
p6354
tp6355
Rp6356
sS'n04464852'
p6357
g2
(g6
S'\x13\x06'
p6358
tp6359
Rp6360
sS'n03302121'
p6361
g2
(g6
S'$\x07'
p6362
tp6363
Rp6364
sS'n07715561'
p6365
g2
(g6
S',\x04'
p6366
tp6367
Rp6368
sS'n03272562'
p6369
g2
(g6
S'\x06\x01'
p6370
tp6371
Rp6372
sS'n02910353'
p6373
g2
(g6
S'D\x02'
p6374
tp6375
Rp6376
sS'n04341686'
p6377
g2
(g6
S'\x8e\x06'
p6378
tp6379
Rp6380
sS'n01829413'
p6381
g2
(g6
S'\x9e\x01'
p6382
tp6383
Rp6384
sS'n02092339'
p6385
g2
(g75
S'\x19'
p6386
tp6387
Rp6388
sS'n01704323'
p6389
g2
(g6
S'\xda\x01'
p6390
tp6391
Rp6392
sS'n02787622'
p6393
g2
(g6
S'U\x01'
p6394
tp6395
Rp6396
sS'n07718472'
p6397
g2
(g6
S'\xe7\x02'
p6398
tp6399
Rp6400
sS'n02101006'
p6401
g2
(g75
S'\x9a'
p6402
tp6403
Rp6404
sS'n03701391'
p6405
g2
(g6
S'\xa8\x05'
p6406
tp6407
Rp6408
sS'n04252225'
p6409
g2
(g6
S'\x16\x01'
p6410
tp6411
Rp6412
sS'n03770679'
p6413
g2
(g6
S'\x0f\x01'
p6414
tp6415
Rp6416
sS'n04554684'
p6417
g2
(g6
S'\x9d\x02'
p6418
tp6419
Rp6420
sS'n04026417'
p6421
g2
(g6
S'\xab\x03'
p6422
tp6423
Rp6424
sS'n03540267'
p6425
g2
(g6
S'\xf7\x06'
p6426
tp6427
Rp6428
sS'n02028035'
p6429
g2
(g6
S'\xb3\x01'
p6430
tp6431
Rp6432
sS'n01695060'
p6433
g2
(g6
S'\xd9\x01'
p6434
tp6435
Rp6436
sS'n03405265'
p6437
g2
(g6
S's\x06'
p6438
tp6439
Rp6440
sS'n02096294'
p6441
g2
(g75
S'\x04'
p6442
tp6443
Rp6444
sS'n02410509'
p6445
g2
(g75
S'\xa5'
p6446
tp6447
Rp6448
sS'n03169390'
p6449
g2
(g6
S'&\x07'
p6450
tp6451
Rp6452
sS'n01743605'
p6453
g2
(g6
S'F\x05'
p6454
tp6455
Rp6456
sS'n02951358'
p6457
g2
(g75
S'\xef'
p6458
tp6459
Rp6460
sS'n02739668'
p6461
g2
(g6
S'\x0b\x07'
p6462
tp6463
Rp6464
sS'n02165456'
p6465
g2
(g6
S'n\x02'
p6466
tp6467
Rp6468
sS'n02105855'
p6469
g2
(g75
S'\xab'
p6470
tp6471
Rp6472
sS'n01980166'
p6473
g2
(g6
S'g\x02'
p6474
tp6475
Rp6476
sS'n02497673'
p6477
g2
(g75
S'\xc7'
p6478
tp6479
Rp6480
sS'n02489589'
p6481
g2
(g6
S'\xc0\x04'
p6482
tp6483
Rp6484
sS'n03666917'
p6485
g2
(g6
S'[\x06'
p6486
tp6487
Rp6488
sS'n02086910'
p6489
g2
(g75
S'+'
p6490
tp6491
Rp6492
sS'n03929855'
p6493
g2
(g6
S'\x9e\x03'
p6494
tp6495
Rp6496
sS'n02095050'
p6497
g2
(g6
S'\x91\x04'
p6498
tp6499
Rp6500
sS'n04458633'
p6501
g2
(g6
S'\xbc\x02'
p6502
tp6503
Rp6504
sS'n01728572'
p6505
g2
(g6
S'\xdd\x01'
p6506
tp6507
Rp6508
sS'n04520170'
p6509
g2
(g6
S'\x11\x06'
p6510
tp6511
Rp6512
sS'n09214060'
p6513
g2
(g6
S'?\x04'
p6514
tp6515
Rp6516
sS'n04081844'
p6517
g2
(g6
S'\xcb\x05'
p6518
tp6519
Rp6520
sS'n07570720'
p6521
g2
(g6
S'\xfd\x03'
p6522
tp6523
Rp6524
sS'n04296562'
p6525
g2
(g6
S'$\x03'
p6526
tp6527
Rp6528
sS'n02488291'
p6529
g2
(g75
S'\xcb'
p6530
tp6531
Rp6532
sS'n02098105'
p6533
g2
(g75
S'\x1a'
p6534
tp6535
Rp6536
sS'n02399000'
p6537
g2
(g6
S'\xe1\x04'
p6538
tp6539
Rp6540
sS'n02090379'
p6541
g2
(g75
S'\xb5'
p6542
tp6543
Rp6544
sS'n01877134'
p6545
g2
(g6
S'\xf9\x04'
p6546
tp6547
Rp6548
sS'n02096437'
p6549
g2
(g75
S'\x1b'
p6550
tp6551
Rp6552
sS'n03944341'
p6553
g2
(g6
S'5\x02'
p6554
tp6555
Rp6556
sS'n04021028'
p6557
g2
(g6
S'\xec\x06'
p6558
tp6559
Rp6560
sS'n04515003'
p6561
g2
(g6
S'N\x01'
p6562
tp6563
Rp6564
sS'n02119022'
p6565
g2
(g75
S'>'
p6566
tp6567
Rp6568
sS'n04154565'
p6569
g2
(g6
S'{\x01'
p6570
tp6571
Rp6572
sS'n02018207'
p6573
g2
(g6
S'\xaf\x01'
p6574
tp6575
Rp6576
sS'n01975687'
p6577
g2
(g6
S'f\x04'
p6578
tp6579
Rp6580
sS'n03075370'
p6581
g2
(g6
S'G\x02'
p6582
tp6583
Rp6584
sS'n01614925'
p6585
g2
(g6
S'\x8e\x01'
p6586
tp6587
Rp6588
sS'n02093647'
p6589
g2
(g75
S'w'
p6590
tp6591
Rp6592
sS'n02100399'
p6593
g2
(g6
S'\x8b\x04'
p6594
tp6595
Rp6596
sS'n04356056'
p6597
g2
(g6
S'\x17\x02'
p6598
tp6599
Rp6600
sS'n02799897'
p6601
g2
(g6
S'5\x06'
p6602
tp6603
Rp6604
sS'n04579145'
p6605
g2
(g6
S'\x04\x03'
p6606
tp6607
Rp6608
sS'n02132136'
p6609
g2
(g75
S'='
p6610
tp6611
Rp6612
sS'n03133878'
p6613
g2
(g6
S'\x9e\x02'
p6614
tp6615
Rp6616
sS'n02073250'
p6617
g2
(g6
S'\xd2\x04'
p6618
tp6619
Rp6620
sS'n06359193'
p6621
g2
(g6
S')\x02'
p6622
tp6623
Rp6624
sS'n03384352'
p6625
g2
(g6
S'\x05\x01'
p6626
tp6627
Rp6628
sS'n04348184'
p6629
g2
(g6
S'g\x06'
p6630
tp6631
Rp6632
sS'n03078287'
p6633
g2
(g6
S'\x8c\x06'
p6634
tp6635
Rp6636
sS'n04388743'
p6637
g2
(g6
S'$\x06'
p6638
tp6639
Rp6640
sS'n04118538'
p6641
g2
(g6
S'l\x03'
p6642
tp6643
Rp6644
sS'n04311004'
p6645
g2
(g6
S'\xa8\x02'
p6646
tp6647
Rp6648
sS'n02123394'
p6649
g2
(g75
S'\n'
p6650
tp6651
Rp6652
sS'n01817953'
p6653
g2
(g6
S'\x98\x01'
p6654
tp6655
Rp6656
sS'n02470325'
p6657
g2
(g6
S'\xbb\x04'
p6658
tp6659
Rp6660
sS'n02100877'
p6661
g2
(g75
S'\xc0'
p6662
tp6663
Rp6664
sS'n03666591'
p6665
g2
(g6
S'"\x02'
p6666
tp6667
Rp6668
sS'n02510455'
p6669
g2
(g75
S'\xa9'
p6670
tp6671
Rp6672
sS'n02168699'
p6673
g2
(g6
S'p\x02'
p6674
tp6675
Rp6676
sS'n02883344'
p6677
g2
(g6
S'.\x06'
p6678
tp6679
Rp6680
sS'n02018027'
p6681
g2
(g6
S'\x1d\x05'
p6682
tp6683
Rp6684
sS'n02817516'
p6685
g2
(g6
S'Q\x03'
p6686
tp6687
Rp6688
sS'n03482405'
p6689
g2
(g6
S'H\x03'
p6690
tp6691
Rp6692
sS'n04347754'
p6693
g2
(g75
S'\xf7'
p6694
tp6695
Rp6696
sS'n04568557'
p6697
g2
(g6
S'\xe2\x05'
p6698
tp6699
Rp6700
sS'n06263609'
p6701
g2
(g6
S'\x88\x06'
p6702
tp6703
Rp6704
sS'n02740533'
p6705
g2
(g6
S'\n\x06'
p6706
tp6707
Rp6708
sS'n14580897'
p6709
g2
(g6
S'\x17\x04'
p6710
tp6711
Rp6712
sS'n02606052'
p6713
g2
(g6
S'\xc4\x01'
p6714
tp6715
Rp6716
sS'n04355338'
p6717
g2
(g6
S'\x0e\x02'
p6718
tp6719
Rp6720
sS'n04097866'
p6721
g2
(g6
S'\xed\x06'
p6722
tp6723
Rp6724
sS'n01744401'
p6725
g2
(g6
S'\xe7\x01'
p6726
tp6727
Rp6728
sS'n03873416'
p6729
g2
(g6
S':\x03'
p6730
tp6731
Rp6732
sS'n01630284'
p6733
g2
(g6
S'R\x05'
p6734
tp6735
Rp6736
sS'n04008634'
p6737
g2
(g6
S'\x1e\x02'
p6738
tp6739
Rp6740
sS'n01664065'
p6741
g2
(g6
S'\xca\x01'
p6742
tp6743
Rp6744
sS'n01631663'
p6745
g2
(g6
S'\xf0\x01'
p6746
tp6747
Rp6748
sS'n02865351'
p6749
g2
(g6
S'\xac\x03'
p6750
tp6751
Rp6752
sS'n03413828'
p6753
g2
(g6
S';\x06'
p6754
tp6755
Rp6756
sS'n03355925'
p6757
g2
(g6
S'\xe3\x03'
p6758
tp6759
Rp6760
sS'n04266014'
p6761
g2
(g75
S'\xea'
p6762
tp6763
Rp6764
sS'n02110806'
p6765
g2
(g75
S'T'
p6766
tp6767
Rp6768
sS'n01629819'
p6769
g2
(g6
S'\xee\x01'
p6770
tp6771
Rp6772
sS'n07831146'
p6773
g2
(g6
S'\xe7\x03'
p6774
tp6775
Rp6776
sS'n03740161'
p6777
g2
(g6
S'\x14\x04'
p6778
tp6779
Rp6780
sS'n07911371'
p6781
g2
(g6
S'\x0f\x04'
p6782
tp6783
Rp6784
sS'n03255030'
p6785
g2
(g6
S'\xe8\x03'
p6786
tp6787
Rp6788
sS'n03775546'
p6789
g2
(g6
S'=\x03'
p6790
tp6791
Rp6792
sS'n01843383'
p6793
g2
(g6
S'\xa1\x01'
p6794
tp6795
Rp6796
sS'n03404251'
p6797
g2
(g6
S'\xf5\x02'
p6798
tp6799
Rp6800
sS'n01734418'
p6801
g2
(g6
S'\xe1\x01'
p6802
tp6803
Rp6804
sS'n02808304'
p6805
g2
(g6
S'\x8d\x03'
p6806
tp6807
Rp6808
sS'n02323449'
p6809
g2
(g6
S'\xb6\x04'
p6810
tp6811
Rp6812
sS'n03476991'
p6813
g2
(g6
S'\x7f\x03'
p6814
tp6815
Rp6816
sS'n04522168'
p6817
g2
(g6
S'j\x03'
p6818
tp6819
Rp6820
sS'n02951585'
p6821
g2
(g6
S'y\x01'
p6822
tp6823
Rp6824
sS'n04613696'
p6825
g2
(g6
S'\xca\x02'
p6826
tp6827
Rp6828
sS'n01627424'
p6829
g2
(g6
S'N\x05'
p6830
tp6831
Rp6832
sS'n02101388'
p6833
g2
(g75
S'\x96'
p6834
tp6835
Rp6836
sS'n02095889'
p6837
g2
(g75
S'H'
p6838
tp6839
Rp6840
sS'n04153751'
p6841
g2
(g6
S'K\x02'
p6842
tp6843
Rp6844
sS'n01833805'
p6845
g2
(g6
S'\x9f\x01'
p6846
tp6847
Rp6848
sS'n02992211'
p6849
g2
(g6
S'V\x01'
p6850
tp6851
Rp6852
sS'n07697100'
p6853
g2
(g6
S'\x03\x04'
p6854
tp6855
Rp6856
sS'n04468005'
p6857
g2
(g6
S'm\x06'
p6858
tp6859
Rp6860
sS'n12156819'
p6861
g2
(g6
S'Q\x04'
p6862
tp6863
Rp6864
sS'n01691951'
p6865
g2
(g6
S'7\x05'
p6866
tp6867
Rp6868
sS'n01819115'
p6869
g2
(g6
S'\n\x05'
p6870
tp6871
Rp6872
sS'n04465501'
p6873
g2
(g6
S'!\x01'
p6874
tp6875
Rp6876
sS'n02909870'
p6877
g2
(g6
S'4\x03'
p6878
tp6879
Rp6880
sS'n02016358'
p6881
g2
(g6
S'#\x05'
p6882
tp6883
Rp6884
sS'n02447366'
p6885
g2
(g75
S'\x10'
p6886
tp6887
Rp6888
sS'n03839993'
p6889
g2
(g6
S'\xae\x06'
p6890
tp6891
Rp6892
sS'n01872401'
p6893
g2
(g75
S'\xd7'
p6894
tp6895
Rp6896
sS'n02959942'
p6897
g2
(g6
S'\x07\x06'
p6898
tp6899
Rp6900
sS'n04423845'
p6901
g2
(g6
S'\xf6\x02'
p6902
tp6903
Rp6904
sS'n03424325'
p6905
g2
(g6
S'\xcb\x03'
p6906
tp6907
Rp6908
sS'n04323819'
p6909
g2
(g6
S'\xf9\x06'
p6910
tp6911
Rp6912
sS'n04038440'
p6913
g2
(g6
S'\xdd\x05'
p6914
tp6915
Rp6916
sS'n04580298'
p6917
g2
(g6
S'!\x07'
p6918
tp6919
Rp6920
sS'n04596852'
p6921
g2
(g6
S'\xfe\x06'
p6922
tp6923
Rp6924
sS'n03964744'
p6925
g2
(g6
S'+\x07'
p6926
tp6927
Rp6928
sS'n02236044'
p6929
g2
(g6
S'{\x02'
p6930
tp6931
Rp6932
sS'n01675722'
p6933
g2
(g6
S'\xcf\x01'
p6934
tp6935
Rp6936
sS'n02445715'
p6937
g2
(g75
S','
p6938
tp6939
Rp6940
sS'n02113799'
p6941
g2
(g75
S'\x97'
p6942
tp6943
Rp6944
sS'n02106382'
p6945
g2
(g75
S'/'
p6946
tp6947
Rp6948
sS'n02164464'
p6949
g2
(g6
S'l\x04'
p6950
tp6951
Rp6952
sS'n01580077'
p6953
g2
(g6
S'\x89\x01'
p6954
tp6955
Rp6956
sS'n02534559'
p6957
g2
(g6
S'c\x05'
p6958
tp6959
Rp6960
sS'n03045698'
p6961
g2
(g6
S'\x1d\x03'
p6962
tp6963
Rp6964
sS'n03623556'
p6965
g2
(g6
S'\xe9\x05'
p6966
tp6967
Rp6968
sS'n02112137'
p6969
g2
(g75
S'\xa8'
p6970
tp6971
Rp6972
sS'n04540053'
p6973
g2
(g6
S'\xa8\x03'
p6974
tp6975
Rp6976
sS'n02106166'
p6977
g2
(g75
S'\x80'
p6978
tp6979
Rp6980
sS'n02098286'
p6981
g2
(g75
S'G'
p6982
tp6983
Rp6984
sS'n04141975'
p6985
g2
(g6
S'\t\x02'
p6986
tp6987
Rp6988
sS'n01438208'
p6989
g2
(g6
S'a\x05'
p6990
tp6991
Rp6992
sS'n03863923'
p6993
g2
(g6
S'\xe7\x06'
p6994
tp6995
Rp6996
sS'n07809096'
p6997
g2
(g6
S'\xf5\x03'
p6998
tp6999
Rp7000
sS'n09406793'
p7001
g2
(g6
S'@\x04'
p7002
tp7003
Rp7004
sS'n03891332'
p7005
g2
(g6
S'\x0f\x02'
p7006
tp7007
Rp7008
sS'n03760671'
p7009
g2
(g6
S'\x9d\x05'
p7010
tp7011
Rp7012
sS'n01773797'
p7013
g2
(g6
S'^\x02'
p7014
tp7015
Rp7016
sS'n02112350'
p7017
g2
(g75
S'\x94'
p7018
tp7019
Rp7020
sS'n02484975'
p7021
g2
(g75
S'I'
p7022
tp7023
Rp7024
sS'n03590841'
p7025
g2
(g6
S'P\x02'
p7026
tp7027
Rp7028
sS'n04049405'
p7029
g2
(g6
S'\xea\x06'
p7030
tp7031
Rp7032
sS'n01798484'
p7033
g2
(g6
S'\x94\x01'
p7034
tp7035
Rp7036
sS'n03320046'
p7037
g2
(g6
S'\x89\x05'
p7038
tp7039
Rp7040
sS'n00017222'
p7041
g2
(g6
S'V\x04'
p7042
tp7043
Rp7044
sS'n02403003'
p7045
g2
(g75
S'l'
p7046
tp7047
Rp7048
sS'n02933112'
p7049
g2
(g6
S'x\x06'
p7050
tp7051
Rp7052
sS'n02906734'
p7053
g2
(g6
S'S\x03'
p7054
tp7055
Rp7056
sS'n02094258'
p7057
g2
(g75
S'\x91'
p7058
tp7059
Rp7060
sS'n04060904'
p7061
g2
(g6
S'+\x06'
p7062
tp7063
Rp7064
sS'n04179913'
p7065
g2
(g6
S'/\x02'
p7066
tp7067
Rp7068
sS'n03544143'
p7069
g2
(g6
S'\r\x02'
p7070
tp7071
Rp7072
sS'n02655020'
p7073
g2
(g6
S'\xc7\x01'
p7074
tp7075
Rp7076
sS'n02793495'
p7077
g2
(g6
S'\xab\x02'
p7078
tp7079
Rp7080
sS'n02730930'
p7081
g2
(g6
S'M\x03'
p7082
tp7083
Rp7084
sS'n02361337'
p7085
g2
(g75
S'\xb7'
p7086
tp7087
Rp7088
sS'n01754876'
p7089
g2
(g6
S'M\x05'
p7090
tp7091
Rp7092
sS'n02815834'
p7093
g2
(g6
S'\xdf\x03'
p7094
tp7095
Rp7096
sS'n04038727'
p7097
g2
(g6
S'\xbb\x06'
p7098
tp7099
Rp7100
sS'n01795088'
p7101
g2
(g6
S'\xad\x04'
p7102
tp7103
Rp7104
sS'n03659292'
p7105
g2
(g6
S'\x01\x06'
p7106
tp7107
Rp7108
sS'n04202417'
p7109
g2
(g6
S'\xa9\x06'
p7110
tp7111
Rp7112
sS'n04239074'
p7113
g2
(g6
S'\xd6\x02'
p7114
tp7115
Rp7116
sS'n09256479'
p7117
g2
(g6
S'm\x01'
p7118
tp7119
Rp7120
sS'n02177972'
p7121
g2
(g6
S't\x02'
p7122
tp7123
Rp7124
sS'n02316707'
p7125
g2
(g6
S'\x84\x04'
p7126
tp7127
Rp7128
sS'n02172182'
p7129
g2
(g6
S'r\x02'
p7130
tp7131
Rp7132
sS'n02481823'
p7133
g2
(g75
S'`'
p7134
tp7135
Rp7136
sS'n03180011'
p7137
g2
(g6
S'&\x02'
p7138
tp7139
Rp7140
sS'n09472597'
p7141
g2
(g6
S'j\x01'
p7142
tp7143
Rp7144
sS'n07716906'
p7145
g2
(g6
S'\xe4\x02'
p7146
tp7147
Rp7148
sS'n15074962'
p7149
g2
(g6
S'\x19\x04'
p7150
tp7151
Rp7152
sS'n03343853'
p7153
g2
(g6
S'\xa4\x05'
p7154
tp7155
Rp7156
sS'n02374149'
p7157
g2
(g6
S'\xdd\x04'
p7158
tp7159
Rp7160
sS'n01914609'
p7161
g2
(g6
S'\x88\x02'
p7162
tp7163
Rp7164
sS'n02442845'
p7165
g2
(g75
S'\x17'
p7166
tp7167
Rp7168
sS'n03656484'
p7169
g2
(g6
S'\xc7\x05'
p7170
tp7171
Rp7172
sS'n02108000'
p7173
g2
(g75
S'O'
p7174
tp7175
Rp7176
sS'n07720615'
p7177
g2
(g6
S'(\x04'
p7178
tp7179
Rp7180
sS'n03795580'
p7181
g2
(g6
S'\xb3\x06'
p7182
tp7183
Rp7184
sS'n03794056'
p7185
g2
(g6
S'W\x02'
p7186
tp7187
Rp7188
sS'n02402425'
p7189
g2
(g6
S'\xeb\x04'
p7190
tp7191
Rp7192
sS'n03658185'
p7193
g2
(g6
S's\x01'
p7194
tp7195
Rp7196
sS'n00003553'
p7197
g2
(g6
S'G\x04'
p7198
tp7199
Rp7200
sS'n02107908'
p7201
g2
(g75
S's'
p7202
tp7203
Rp7204
sS'n03841143'
p7205
g2
(g6
S'\x08\x02'
p7206
tp7207
Rp7208
sS'n02263378'
p7209
g2
(g6
S'u\x04'
p7210
tp7211
Rp7212
sS'n03047690'
p7213
g2
(g6
S'\xd3\x03'
p7214
tp7215
Rp7216
sS'n02892201'
p7217
g2
(g6
S'\xcc\x02'
p7218
tp7219
Rp7220
sS'n03171356'
p7221
g2
(g6
S'\xa0\x06'
p7222
tp7223
Rp7224
sS'n02099267'
p7225
g2
(g75
S'\x92'
p7226
tp7227
Rp7228
sS'n03672352'
p7229
g2
(g6
S'"\x07'
p7230
tp7231
Rp7232
sS'n00020827'
p7233
g2
(g6
S'\xeb\x03'
p7234
tp7235
Rp7236
sS'n01558993'
p7237
g2
(g6
S'\x87\x01'
p7238
tp7239
Rp7240
sS'n03093574'
p7241
g2
(g6
S'\x17\x07'
p7242
tp7243
Rp7244
sS'n03322570'
p7245
g2
(g6
S'\x93\x06'
p7246
tp7247
Rp7248
sS'n01687665'
p7249
g2
(g6
S'5\x05'
p7250
tp7251
Rp7252
sS'n03208556'
p7253
g2
(g6
S'\xc3\x05'
p7254
tp7255
Rp7256
sS'n02394477'
p7257
g2
(g6
S'\xdf\x04'
p7258
tp7259
Rp7260
sS'n03450516'
p7261
g2
(g6
S'\xde\x06'
p7262
tp7263
Rp7264
sS'n07880968'
p7265
g2
(g6
S'\x84\x03'
p7266
tp7267
Rp7268
sS'n04158807'
p7269
g2
(g6
S'_\x06'
p7270
tp7271
Rp7272
sS'n02103841'
p7273
g2
(g6
S'\xa1\x04'
p7274
tp7275
Rp7276
sS'n04350905'
p7277
g2
(g6
S'\x1a\x03'
p7278
tp7279
Rp7280
sS'n02095727'
p7281
g2
(g6
S'\x93\x04'
p7282
tp7283
Rp7284
sS'n03918480'
p7285
g2
(g6
S'\xb3\x05'
p7286
tp7287
Rp7288
sS'n02115335'
p7289
g2
(g6
S'\xca\x04'
p7290
tp7291
Rp7292
sS'n04552696'
p7293
g2
(g6
S'f\x06'
p7294
tp7295
Rp7296
sS'n03438257'
p7297
g2
(g6
S'*\x06'
p7298
tp7299
Rp7300
sS'n03920288'
p7301
g2
(g6
S'\x0f\x03'
p7302
tp7303
Rp7304
sS'n04586421'
p7305
g2
(g6
S'\xc0\x05'
p7306
tp7307
Rp7308
sS'n02840245'
p7309
g2
(g6
S'C\x03'
p7310
tp7311
Rp7312
sS'n03590306'
p7313
g2
(g6
S'\xca\x06'
p7314
tp7315
Rp7316
sS'n03777754'
p7317
g2
(g6
S'\xfc\x02'
p7318
tp7319
Rp7320
sS'n02123159'
p7321
g2
(g75
S'7'
p7322
tp7323
Rp7324
sS'n02323902'
p7325
g2
(g6
S'\xb7\x04'
p7326
tp7327
Rp7328
sS'n02808440'
p7329
g2
(g6
S't\x03'
p7330
tp7331
Rp7332
sS'n00021939'
p7333
g2
(g6
S'l\x05'
p7334
tp7335
Rp7336
sS'n03297495'
p7337
g2
(g6
S'\x94\x02'
p7338
tp7339
Rp7340
sS'n02057731'
p7341
g2
(g6
S')\x05'
p7342
tp7343
Rp7344
sS'n02093256'
p7345
g2
(g75
S'-'
p7346
tp7347
Rp7348
sS'n02108915'
p7349
g2
(g75
S'R'
p7350
tp7351
Rp7352
sS'n02127052'
p7353
g2
(g75
S'\xc9'
p7354
tp7355
Rp7356
sS'n04592741'
p7357
g2
(g6
S'\xf7\x01'
p7358
tp7359
Rp7360
sS'n02735688'
p7361
g2
(g6
S'\x90\x06'
p7362
tp7363
Rp7364
sS'n03294048'
p7365
g2
(g6
S'2\x06'
p7366
tp7367
Rp7368
sS'n02105056'
p7369
g2
(g75
S']'
p7370
tp7371
Rp7372
sS'n02105505'
p7373
g2
(g75
S'a'
p7374
tp7375
Rp7376
sS'n07882497'
p7377
g2
(g6
S'\xfb\x03'
p7378
tp7379
Rp7380
sS'n04437953'
p7381
g2
(g6
S'\x91\x05'
p7382
tp7383
Rp7384
sS'n02106550'
p7385
g2
(g75
S'@'
p7386
tp7387
Rp7388
sS'n09468604'
p7389
g2
(g6
S'h\x01'
p7390
tp7391
Rp7392
sS'n03976467'
p7393
g2
(g6
S'Y\x03'
p7394
tp7395
Rp7396
sS'n04428191'
p7397
g2
(g6
S'+\x02'
p7398
tp7399
Rp7400
sS'n02778669'
p7401
g2
(g6
S'=\x06'
p7402
tp7403
Rp7404
sS'n04128499'
p7405
g2
(g6
S'b\x06'
p7406
tp7407
Rp7408
sS'n02100735'
p7409
g2
(g75
S'\x02'
p7410
tp7411
Rp7412
sS'n02134418'
p7413
g2
(g75
S'\xd1'
p7414
tp7415
Rp7416
sS'n10148035'
p7417
g2
(g6
S'P\x03'
p7418
tp7419
Rp7420
sS'n01488918'
p7421
g2
(g6
S'Z\x05'
p7422
tp7423
Rp7424
sS'n03082979'
p7425
g2
(g6
S'\xb0\x05'
p7426
tp7427
Rp7428
sS'n04009552'
p7429
g2
(g6
S'\x16\x02'
p7430
tp7431
Rp7432
sS'n02086240'
p7433
g2
(g75
S't'
p7434
tp7435
Rp7436
sS'n03584254'
p7437
g2
(g6
S'\xd4\x03'
p7438
tp7439
Rp7440
sS'n04371774'
p7441
g2
(g6
S'9\x02'
p7442
tp7443
Rp7444
sS'n04474466'
p7445
g2
(g6
S'\xe1\x05'
p7446
tp7447
Rp7448
sS'n03492542'
p7449
g2
(g6
S'=\x02'
p7450
tp7451
Rp7452
s.